{
  "main_library": {
    "exported_symbols": [
      {
        "data": {
          "global": [
            "__ZN4absl12lts_2022062319str_format_internal31FormatConversionCharSetInternal9kFloatingE",
            "__ZTIN4absl12lts_2022062312bad_any_castE",
            "__ZNSt3__114numeric_limitsIN4absl12lts_202206237uint128EE17has_signaling_NaNE",
            "__ZN4absl12lts_2022062316strings_internal9kTenToNthE",
            "__ZTVN4absl12lts_2022062318bad_variant_accessE",
            "__ZNSt3__114numeric_limitsIN4absl12lts_202206236int128EE15tinyness_beforeE",
            "__ZNSt3__114numeric_limitsIN4absl12lts_202206236int128EE10is_integerE",
            "__ZTSN4absl12lts_2022062312bad_any_castE",
            "__ZTSN4absl12lts_2022062313cord_internal11CordzHandleE",
            "__ZN4absl12lts_2022062319str_format_internal31FormatConversionCharSetInternal1cE",
            "__ZN4absl12lts_2022062316numbers_internal16two_ASCII_digitsE",
            "__ZN4absl12lts_2022062315RFC1123_no_wdayE",
            "__ZN4absl12lts_2022062319str_format_internal28FormatConversionCharInternal1xE",
            "__ZNSt3__114numeric_limitsIN4absl12lts_202206237uint128EE9is_iec559E",
            "__ZN4absl12lts_2022062316numbers_internal8kHexCharE",
            "__ZNSt3__114numeric_limitsIN4absl12lts_202206236int128EE14is_specializedE",
            "__ZNSt3__114numeric_limitsIN4absl12lts_202206236int128EE12has_infinityE",
            "__ZN4absl12lts_2022062319str_format_internal28FormatConversionCharInternal1fE",
            "__ZTSN4absl12lts_2022062317BadStatusOrAccessE",
            "__ZTSN4absl12lts_2022062318bad_variant_accessE",
            "__ZNSt3__114numeric_limitsIN4absl12lts_202206237uint128EE14min_exponent10E",
            "__ZTVN4absl12lts_2022062313cord_internal9CordzInfoE",
            "__ZNSt3__114numeric_limitsIN4absl12lts_202206237uint128EE9is_moduloE",
            "__ZN4absl12lts_202206236Status16kMovedFromStringE",
            "__ZTIN4absl12lts_2022062313cord_internal11CordzHandleE",
            "__ZNSt3__114numeric_limitsIN4absl12lts_202206236int128EE9is_moduloE",
            "__ZNSt3__114numeric_limitsIN4absl12lts_202206236int128EE10has_denormE",
            "__ZN4absl12lts_202206234Cord9InlineRep10kMaxInlineE",
            "__ZNSt3__114numeric_limitsIN4absl12lts_202206236int128EE10is_boundedE",
            "__ZN4absl12lts_2022062319str_format_internal28FormatConversionCharInternal1oE",
            "__ZTSN4absl12lts_2022062313time_internal4cctz14ZoneInfoSourceE",
            "__ZNSt3__114numeric_limitsIN4absl12lts_202206236int128EE9is_iec559E",
            "__ZN4absl12lts_2022062318container_internal16GroupAArch64Impl6kWidthE",
            "__ZN4absl12lts_2022062314ascii_internal8kToLowerE",
            "__ZTSN4absl12lts_2022062316strings_internal13OStringStreamE",
            "__ZTCN4absl12lts_2022062316strings_internal13OStringStreamE64_NSt3__113basic_ostreamIcNS2_11char_traitsIcEEEE",
            "__ZTIN4absl12lts_2022062313time_internal4cctz10TimeZoneIfE",
            "__ZNSt3__114numeric_limitsIN4absl12lts_202206237uint128EE15has_denorm_lossE",
            "__ZN4absl12lts_2022062319str_format_internal28FormatConversionCharInternal1aE",
            "__ZNSt3__114numeric_limitsIN4absl12lts_202206236int128EE12max_digits10E",
            "__ZN4absl12lts_2022062313cord_internal11CordzHandle13global_queue_E",
            "__ZNSt3__114numeric_limitsIN4absl12lts_202206236int128EE11round_styleE",
            "__ZNSt3__114numeric_limitsIN4absl12lts_202206237uint128EE15tinyness_beforeE",
            "__ZNSt3__114numeric_limitsIN4absl12lts_202206237uint128EE10is_boundedE",
            "__ZN4absl12lts_2022062319str_format_internal28FormatConversionCharInternal1cE",
            "__ZN4absl12lts_2022062320raw_logging_internal21internal_log_functionE",
            "__ZTSN4absl12lts_2022062313time_internal4cctz10TimeZoneIfE",
            "__ZTSN4absl12lts_2022062313time_internal4cctz12TimeZoneInfoE",
            "__ZN4absl12lts_2022062319str_format_internal31FormatConversionCharSetInternal1fE",
            "__ZN4absl12lts_2022062319str_format_internal31FormatConversionCharSetInternal1eE",
            "__ZNSt3__114numeric_limitsIN4absl12lts_202206237uint128EE13has_quiet_NaNE",
            "__ZNSt3__114numeric_limitsIN4absl12lts_202206236int128EE14max_exponent10E",
            "__ZN4absl12lts_2022062319str_format_internal31FormatConversionCharSetInternal5kStarE",
            "__ZN4absl12lts_2022062313cord_internal9CordzInfo14kMaxStackDepthE",
            "__ZTSN4absl12lts_2022062319bad_optional_accessE",
            "__ZN4absl12lts_2022062319str_format_internal28FormatConversionCharInternal1EE",
            "__ZNSt3__114numeric_limitsIN4absl12lts_202206237uint128EE11round_styleE",
            "__ZNSt3__114numeric_limitsIN4absl12lts_202206237uint128EE12max_digits10E",
            "__ZN4absl12lts_2022062319str_format_internal31FormatConversionCharSetInternal1pE",
            "__ZN4absl12lts_2022062313cord_internal9CordzInfo12global_list_E",
            "__ZNSt3__114numeric_limitsIN4absl12lts_202206236int128EE9is_signedE",
            "__ZTSN4absl12lts_2022062313cord_internal9CordzInfoE",
            "__ZN4absl12lts_2022062319str_format_internal28FormatConversionCharInternal1AE",
            "__ZTIN4absl12lts_2022062316strings_internal13OStringStreamE",
            "__ZN4absl12lts_2022062319str_format_internal28FormatConversionCharInternal1GE",
            "__ZN4absl12lts_2022062314ascii_internal8kToUpperE",
            "__ZNSt3__114numeric_limitsIN4absl12lts_202206236int128EE13has_quiet_NaNE",
            "__ZN4absl12lts_2022062319str_format_internal28FormatConversionCharInternal1sE",
            "__ZN4absl12lts_2022062319str_format_internal31FormatConversionCharSetInternal1nE",
            "__ZN4absl12lts_2022062313base_internal8SpinLock13kSpinLockHeldE",
            "__ZNSt3__114numeric_limitsIN4absl12lts_202206237uint128EE14max_exponent10E",
            "__ZN4absl12lts_2022062319str_format_internal28FormatConversionCharInternal1nE",
            "__ZN4absl12lts_2022062313cord_internal24shallow_subcords_enabledE",
            "__ZN4absl12lts_2022062319str_format_internal28FormatConversionCharInternal1FE",
            "__ZN4absl12lts_2022062319str_format_internal31FormatConversionCharSetInternal1FE",
            "__ZN4absl12lts_2022062319str_format_internal31FormatConversionCharSetInternal1aE",
            "__ZN4absl12lts_2022062313cord_internal24cord_ring_buffer_enabledE",
            "__ZN4absl12lts_2022062310CordBuffer13kDefaultLimitE",
            "__ZTIN4absl12lts_2022062317BadStatusOrAccessE",
            "__ZNSt3__114numeric_limitsIN4absl12lts_202206237uint128EE5radixE",
            "__ZTVN4absl12lts_2022062313time_internal4cctz14ZoneInfoSourceE",
            "__ZN4absl12lts_2022062319str_format_internal28FormatConversionCharInternal1gE",
            "__ZTTN4absl12lts_2022062316strings_internal13OStringStreamE",
            "__ZN4absl12lts_2022062311string_view4nposE",
            "__ZTSN4absl12lts_2022062316SeedGenExceptionE",
            "__ZN4absl12lts_2022062312RFC1123_fullE",
            "__ZN4absl12lts_2022062319str_format_internal31FormatConversionCharSetInternal1dE",
            "__ZTVN4absl12lts_2022062313time_internal4cctz12TimeZoneLibCE",
            "__ZTVN4absl12lts_2022062319bad_optional_accessE",
            "__ZNSt3__114numeric_limitsIN4absl12lts_202206236int128EE15has_denorm_lossE",
            "__ZNSt3__114numeric_limitsIN4absl12lts_202206237uint128EE14is_specializedE",
            "__ZN4absl12lts_2022062315random_internal16kRandenRoundKeysE",
            "__ZN4absl12lts_2022062311kuint128maxE",
            "__ZN4absl12lts_2022062319str_format_internal31FormatConversionCharSetInternal1gE",
            "__ZNSt3__114numeric_limitsIN4absl12lts_202206237uint128EE8is_exactE",
            "__ZNSt3__114numeric_limitsIN4absl12lts_202206237uint128EE5trapsE",
            "__ZN4absl12lts_2022062313base_internal8SpinLock27kSpinLockDisabledSchedulingE",
            "__ZNSt3__114numeric_limitsIN4absl12lts_202206236int128EE5trapsE",
            "__ZNSt3__114numeric_limitsIN4absl12lts_202206237uint128EE6digitsE",
            "__ZTVN4absl12lts_2022062313cord_internal11CordzHandleE",
            "__ZNSt3__114numeric_limitsIN4absl12lts_202206237uint128EE10has_denormE",
            "__ZN4absl12lts_2022062313cord_internal32cord_btree_exhaustive_validationE",
            "__ZNSt3__114numeric_limitsIN4absl12lts_202206236int128EE12min_exponentE",
            "__ZN4absl12lts_2022062316numbers_internal9kHexTableE",
            "__ZTVN4absl12lts_2022062317BadStatusOrAccessE",
            "__ZN4absl12lts_2022062319str_format_internal31FormatConversionCharSetInternal1sE",
            "__ZN4absl12lts_2022062313cord_internal11CordRepRing12kMaxCapacityE",
            "__ZTIN4absl12lts_2022062318bad_variant_accessE",
            "__ZN4absl12lts_2022062318container_internal14HashtablezInfo14kMaxStackDepthE",
            "__ZTVN4absl12lts_2022062313time_internal4cctz12TimeZoneInfoE",
            "__ZTVN4absl12lts_2022062313time_internal4cctz10TimeZoneIfE",
            "__ZNSt3__114numeric_limitsIN4absl12lts_202206236int128EE17has_signaling_NaNE",
            "__ZN4absl12lts_2022062319str_format_internal31FormatConversionCharSetInternal1oE",
            "__ZN4absl12lts_202206239Condition5kTrueE",
            "_abslVersionNumber",
            "__ZN4absl12lts_2022062319str_format_internal28FormatConversionCharInternal5kNoneE",
            "__ZN4absl12lts_2022062319str_format_internal28FormatConversionCharInternal1pE",
            "__ZTVN4absl12lts_2022062316strings_internal13OStringStreamE",
            "__ZN4absl12lts_2022062319str_format_internal31FormatConversionCharSetInternal1GE",
            "__ZTIN4absl12lts_2022062313cord_internal9CordzInfoE",
            "__ZN4absl12lts_2022062319str_format_internal31FormatConversionCharSetInternal8kNumericE",
            "__ZN4absl12lts_2022062311RFC3339_secE",
            "__ZTVN4absl12lts_2022062316SeedGenExceptionE",
            "__ZTIN4absl12lts_2022062313time_internal4cctz14ZoneInfoSourceE",
            "__ZNSt3__114numeric_limitsIN4absl12lts_202206236int128EE5radixE",
            "__ZN4absl12lts_2022062316strings_internal10kFiveToNthE",
            "__ZN4absl12lts_2022062319str_format_internal5kTagsE",
            "__ZNSt3__114numeric_limitsIN4absl12lts_202206236int128EE8digits10E",
            "__ZNSt3__114numeric_limitsIN4absl12lts_202206237uint128EE8digits10E",
            "__ZN4absl12lts_2022062319str_format_internal31FormatConversionCharSetInternal8kPointerE",
            "__ZNSt3__114numeric_limitsIN4absl12lts_202206237uint128EE12max_exponentE",
            "__ZNSt3__114numeric_limitsIN4absl12lts_202206236int128EE8is_exactE",
            "__ZN4absl12lts_2022062311string_view8kMaxSizeE",
            "__ZN4absl12lts_2022062318container_internal11kEmptyGroupE",
            "__ZNSt3__114numeric_limitsIN4absl12lts_202206236int128EE6digitsE",
            "__ZN4absl12lts_2022062314ascii_internal13kPropertyBitsE",
            "__ZNSt3__114numeric_limitsIN4absl12lts_202206236int128EE14min_exponent10E",
            "__ZN4absl12lts_2022062319str_format_internal28FormatConversionCharInternal1eE",
            "__ZN4absl12lts_2022062319str_format_internal31FormatConversionCharSetInternal1iE",
            "__ZN4absl12lts_2022062319str_format_internal28FormatConversionCharInternal1iE",
            "__ZN4absl12lts_2022062313base_internal8SpinLock20kSpinLockCooperativeE",
            "__ZTIN4absl12lts_2022062313time_internal4cctz12TimeZoneLibCE",
            "__ZTSN4absl12lts_2022062313time_internal4cctz12TimeZoneLibCE",
            "__ZNSt3__114numeric_limitsIN4absl12lts_202206237uint128EE9is_signedE",
            "__ZN4absl12lts_2022062319str_format_internal28FormatConversionCharInternal1XE",
            "__ZN4absl12lts_2022062319str_format_internal31FormatConversionCharSetInternal9kIntegralE",
            "__ZNSt3__114numeric_limitsIN4absl12lts_202206237uint128EE12has_infinityE",
            "__ZN4absl12lts_2022062319str_format_internal31FormatConversionCharSetInternal1AE",
            "__ZTIN4absl12lts_2022062319bad_optional_accessE",
            "__ZN4absl12lts_2022062319str_format_internal31FormatConversionCharSetInternal1uE",
            "__ZNSt3__114numeric_limitsIN4absl12lts_202206236int128EE12max_exponentE",
            "__ZN4absl12lts_2022062313base_internal8SpinLock13kWaitTimeMaskE",
            "__ZN4absl12lts_2022062313cord_internal12CordRepBtree12kMaxCapacityE",
            "__ZTIN4absl12lts_2022062313time_internal4cctz12TimeZoneInfoE",
            "__ZNSt3__114numeric_limitsIN4absl12lts_202206237uint128EE10is_integerE",
            "_abslVersionString",
            "__ZN4absl12lts_2022062315random_internal18kRandenRoundKeysBEE",
            "__ZN4absl12lts_2022062310CordBuffer12kCustomLimitE",
            "__ZN4absl12lts_2022062313base_internal8SpinLock16kSpinLockSleeperE",
            "__ZN4absl12lts_2022062316strings_internal12kBase64CharsE",
            "__ZN4absl12lts_2022062319str_format_internal28FormatConversionCharInternal1dE",
            "__ZTVN4absl12lts_2022062312bad_any_castE",
            "__ZNSt3__114numeric_limitsIN4absl12lts_202206237uint128EE12min_exponentE",
            "__ZN4absl12lts_2022062312RFC3339_fullE",
            "__ZN4absl12lts_2022062319str_format_internal31FormatConversionCharSetInternal1xE",
            "__ZN4absl12lts_2022062319str_format_internal28FormatConversionCharInternal1uE",
            "__ZN4absl12lts_2022062319str_format_internal31FormatConversionCharSetInternal1EE",
            "__ZTIN4absl12lts_2022062316SeedGenExceptionE",
            "__ZN4absl12lts_2022062313hash_internal15MixingHashState5kSeedE",
            "__ZN4absl12lts_2022062315random_internal26gaussian_distribution_base3zg_E",
            "__ZN4absl12lts_2022062319str_format_internal31FormatConversionCharSetInternal1XE"
          ],
          "objc_class": [
            "PodsDummy_abseil"
          ],
          "thread_local": [
            "__ZN4absl12lts_2022062313base_internal19thread_identity_ptrE"
          ],
          "weak": [
            "__ZN4absl12lts_2022062339AbslInternalInlineVariableHoldernulloptIvE9kInstanceE",
            "__ZN4absl12lts_2022062313time_internal14cctz_extension24zone_info_source_factoryE",
            "__ZZN4absl12lts_2022062313base_internal12CallOnceImplIRFvvEJEEEvPNSt3__16atomicIjEENS1_14SchedulingModeEOT_DpOT0_E5trans",
            "__ZN4absl12lts_2022062340AbslInternalInlineVariableHolderin_placeIvE9kInstanceE"
          ]
        },
        "text": {
          "global": [
            "__ZN4absl12lts_202206234Cord7PrependERKS1_",
            "__ZN4absl12lts_2022062313cord_internal12CordRepBtree6AppendEPS2_NS0_11string_viewEm",
            "__ZN4absl12lts_202206237CondVarD2Ev",
            "__ZN4absl12lts_2022062313time_internal4cctz6detaillsERNSt3__113basic_ostreamIcNS4_11char_traitsIcEEEERKNS3_10civil_timeINS3_7day_tagEEE",
            "__ZN4absl12lts_202206235Mutex13ReaderTryLockEv",
            "__ZN4absl12lts_2022062313cord_internal16LogFatalNodeTypeEPNS1_7CordRepE",
            "__ZNK4absl12lts_2022062311string_view17find_first_not_ofES1_m",
            "__ZN4absl12lts_2022062316strings_internal14EncodeUTF8CharEPcDi",
            "__ZN4absl12lts_2022062321ParseLenientCivilTimeENS0_11string_viewEPNS0_13time_internal4cctz6detail10civil_timeINS2_7day_tagEEE",
            "__ZN4absl12lts_2022062315random_internal19MixIntoSeedMaterialENS0_4SpanIKjEENS2_IjEE",
            "__ZN4absl12lts_202206234Cord9InlineRep16AppendTreeToTreeEPNS0_13cord_internal7CordRepENS3_18CordzUpdateTracker16MethodIdentifierE",
            "__ZN4absl12lts_2022062313cord_internal11CordRepRing6AppendEPS2_PNS1_7CordRepE",
            "__ZN4absl12lts_2022062313time_internal4cctz12TimeZoneLibCC1ERKNSt3__112basic_stringIcNS4_11char_traitsIcEENS4_9allocatorIcEEEE",
            "__ZN4absl12lts_202206234CordaSENS0_11string_viewE",
            "__ZN4absl12lts_2022062324synchronization_internal11GraphCycles10InsertEdgeENS1_7GraphIdES3_",
            "__ZN4absl12lts_202206237uint128C2Ed",
            "__ZN4absl12lts_2022062324synchronization_internal11GraphCyclesD2Ev",
            "__ZN4absl12lts_2022062313DataLossErrorENS0_11string_viewE",
            "__ZN4absl12lts_2022062318IsPermissionDeniedERKNS0_6StatusE",
            "__ZNK4absl12lts_2022062311string_view4findES1_m",
            "__ZN4absl12lts_2022062317internal_statusor6Helper5CrashERKNS0_6StatusE",
            "__ZNK4absl12lts_2022062313time_internal4cctz12TimeZoneLibC8MakeTimeERKNS2_6detail10civil_timeINS4_10second_tagEEE",
            "__ZN4absl12lts_2022062313base_internal8SpinLockC1ENS1_14SchedulingModeE",
            "__ZN4absl12lts_2022062313NotFoundErrorENS0_11string_viewE",
            "__ZN4absl12lts_2022062313cord_internal9CordzInfo6UnlockEv",
            "__ZN4absl12lts_2022062313base_internal13LowLevelAlloc8NewArenaEi",
            "__ZN4absl12lts_2022062318container_internal28SetHashtablezEnabledInternalEb",
            "__ZN4absl12lts_20220623lsERNSt3__113basic_ostreamIcNS1_11char_traitsIcEEEENS0_11LogSeverityE",
            "__ZN4absl12lts_2022062313cord_internal12CordRepBtree7AddDataILNS2_8EdgeTypeE1EEENS0_11string_viewES5_m",
            "__ZN4absl12lts_2022062313time_internal4cctz14ZoneInfoSourceD0Ev",
            "__ZN4absl12lts_2022062313base_internal13LowLevelAlloc12DefaultArenaEv",
            "__ZNK4absl12lts_2022062313time_internal4cctz12TimeZoneInfo9BreakTimeERKNSt3__16chrono10time_pointINS5_12system_clockENS5_8durationIxNS4_5ratioILl1ELl1EEEEEEE",
            "__ZN4absl12lts_2022062320UnauthenticatedErrorENS0_11string_viewE",
            "__ZN4absl12lts_2022062313hash_internal18CityHash64WithSeedEPKcmy",
            "__ZN4absl12lts_2022062319str_format_internal14FormatSinkImpl15PutPaddedStringENS0_11string_viewEiib",
            "__ZN4absl12lts_202206237ToTimeTENS0_4TimeE",
            "__ZN4absl12lts_2022062324synchronization_internal20CreateThreadIdentityEv",
            "__ZN4absl12lts_202206233NowEv",
            "__ZN4absl12lts_202206237uint128C2Ee",
            "__ZN4absl12lts_202206239ConditionC1EPFbPvES2_",
            "__ZN4absl12lts_202206235Mutex45InternalAttemptToUseMutexInFatalSignalHandlerEv",
            "__ZN4absl12lts_2022062316strings_internal14CordTestAccess11LengthToTagEm",
            "__ZN4absl12lts_2022062316BytesToHexStringENS0_11string_viewE",
            "__ZNK4absl12lts_2022062317BadStatusOrAccess4whatEv",
            "__ZN4absl12lts_2022062315random_internal10RandenSlow8GenerateEPKvPv",
            "__ZN4absl12lts_2022062319str_format_internal11FILERawSink5WriteENS0_11string_viewE",
            "__ZN4absl12lts_2022062313cord_internal11CordRepRing7PrependEPS2_PNS1_7CordRepE",
            "__ZN4absl12lts_2022062319ToInt64MicrosecondsENS0_8DurationE",
            "__ZN4absl12lts_202206235Mutex3FerEPNS0_13base_internal14PerThreadSynchE",
            "__ZN4absl12lts_2022062312ToInt64HoursENS0_8DurationE",
            "__ZN4absl12lts_202206235Mutex6UnlockEv",
            "__ZN4absl12lts_2022062313cord_internal11CordRepRing13AddDataOffsetEjm",
            "__ZN4absl12lts_2022062319substitute_internal24SubstituteAndAppendArrayEPNSt3__112basic_stringIcNS2_11char_traitsIcEENS2_9allocatorIcEEEENS0_11string_viewEPKSA_m",
            "__ZN4absl12lts_202206234Cord9InlineRep10AssignSlowERKS2_",
            "__ZN4absl12lts_202206234Cord9InlineRep10AppendTreeEPNS0_13cord_internal7CordRepENS3_18CordzUpdateTracker16MethodIdentifierE",
            "__ZN4absl12lts_2022062313time_internal4cctz9time_zone4ImplC1ERKNSt3__112basic_stringIcNS5_11char_traitsIcEENS5_9allocatorIcEEEE",
            "__ZN4absl12lts_202206234Cord9InlineRep9UnrefTreeEv",
            "__ZN4absl12lts_2022062319str_format_internal17FormatConvertImplEPKcNS1_24FormatConversionSpecImplEPNS1_14FormatSinkImplE",
            "__ZN4absl12lts_202206234Cord19SetExpectedChecksumEj",
            "__ZNK4absl12lts_2022062313time_internal4cctz12TimeZoneLibC14PrevTransitionERKNSt3__16chrono10time_pointINS5_12system_clockENS5_8durationIxNS4_5ratioILl1ELl1EEEEEEEPNS2_9time_zone16civil_transitionE",
            "__ZN4absl12lts_2022062313base_internal21ThrowStdOverflowErrorERKNSt3__112basic_stringIcNS2_11char_traitsIcEENS2_9allocatorIcEEEE",
            "__ZNK4absl12lts_2022062311string_view4findEcm",
            "__ZNK4absl12lts_2022062313cord_internal11CordRepRing12FindTailSlowEjm",
            "__ZNK4absl12lts_202206234Cord10EqualsImplENS0_11string_viewEm",
            "__ZNK4absl12lts_2022062311string_view5rfindEcm",
            "__ZN4absl12lts_2022062313cord_internal23GetEstimatedMemoryUsageEPKNS1_7CordRepE",
            "__ZN4absl12lts_2022062316numbers_internal15FastIntToBufferExPc",
            "__ZN4absl12lts_2022062315BlockingCounterC2Ei",
            "__ZN4absl12lts_2022062319str_format_internal17FormatConvertImplENS0_7uint128ENS1_24FormatConversionSpecImplEPNS1_14FormatSinkImplE",
            "__ZN4absl12lts_202206235Mutex6WakeupEPNS0_13base_internal14PerThreadSynchE",
            "__ZN4absl12lts_202206236Status15UnrefNonInlinedEm",
            "__ZN4absl12lts_2022062313base_internal13LowLevelAlloc11DeleteArenaEPNS2_5ArenaE",
            "__ZN4absl12lts_202206237CondVar9SignalAllEv",
            "__ZN4absl12lts_2022062317BadStatusOrAccessC2ERKS1_",
            "__ZN4absl12lts_2022062313cord_internal21CordRepBtreeNavigator4SkipEm",
            "__ZN4absl12lts_2022062324synchronization_internal11GraphCycles10RemoveNodeEPv",
            "__ZN4absl12lts_2022062313cord_internal9CordzInfo18MaybeTrackCordImplERNS1_10InlineDataERKS3_NS1_18CordzUpdateTracker16MethodIdentifierE",
            "__ZN4absl12lts_2022062324synchronization_internal11GraphCyclesC2Ev",
            "__ZN4absl12lts_2022062322ResourceExhaustedErrorENS0_11string_viewE",
            "__ZN4absl12lts_2022062311IsCancelledERKNS0_6StatusE",
            "__ZNK4absl12lts_2022062313cord_internal11CordzHandle32DiagnosticsHandleIsSafeToInspectEPKS2_",
            "__ZN4absl12lts_202206235Mutex12LockSlowLoopEPNS0_15SynchWaitParamsEi",
            "__ZN4absl12lts_202206238DurationpLES1_",
            "__ZN4absl12lts_2022062319WebSafeBase64EscapeENS0_11string_viewE",
            "__ZN4absl12lts_2022062313time_internallsERNSt3__113basic_ostreamIcNS2_11char_traitsIcEEEENS1_4cctz6detail10civil_timeINS1_8hour_tagEEE",
            "__ZNK4absl12lts_202206234Cord7CompareENS0_11string_viewE",
            "__ZN4absl12lts_202206234Cord12PrependArrayENS0_11string_viewENS0_13cord_internal18CordzUpdateTracker16MethodIdentifierE",
            "__ZN4absl12lts_2022062313time_internal4cctz10TimeZoneIfD1Ev",
            "__ZN4absl12lts_2022062313time_internal4cctz12TimeZoneInfo4LoadERKNSt3__112basic_stringIcNS4_11char_traitsIcEENS4_9allocatorIcEEEE",
            "__ZN4absl12lts_2022062313time_internal4cctz6detail5parseERKNSt3__112basic_stringIcNS4_11char_traitsIcEENS4_9allocatorIcEEEESC_RKNS2_9time_zoneEPNS4_6chrono10time_pointINSG_12system_clockENSG_8durationIxNS4_5ratioILl1ELl1EEEEEEEPNSJ_IxNSK_ILl1ELl1000000000000000EEEEEPSA_",
            "__ZNK4absl12lts_202206234Cord19CopyToArraySlowPathEPc",
            "__ZNK4absl12lts_202206234Cord7SubcordEmm",
            "__ZN4absl12lts_2022062316strings_internal20Base64EscapeInternalEPKhmPcmPKcb",
            "__ZN4absl12lts_2022062313cord_internal9CordzInfoD0Ev",
            "__ZN4absl12lts_202206238DurationdVEd",
            "__ZN4absl12lts_202206239ConditionC2EPFbPvES2_",
            "__ZN4absl12lts_2022062324synchronization_internal6WaiterC1Ev",
            "__ZN4absl12lts_2022062315AsciiStrToLowerEPNSt3__112basic_stringIcNS1_11char_traitsIcEENS1_9allocatorIcEEEE",
            "__ZN4absl12lts_2022062313ToUnixSecondsENS0_4TimeE",
            "__ZN4absl12lts_202206237CondVar14EnableDebugLogEPKc",
            "__ZN4absl12lts_2022062315random_internal6RandenC2Ev",
            "__ZN4absl12lts_2022062318container_internal36SetHashtablezSampleParameterInternalEi",
            "__ZN4absl12lts_2022062316SeedGenExceptionD0Ev",
            "__ZNK4absl12lts_2022062313cord_internal11CordRepRing12GetCharacterEm",
            "__ZN4absl12lts_2022062313cord_internal11CordzHandleD1Ev",
            "__ZN4absl12lts_2022062313cord_internal11CordRepRing7SubRingEPS2_mmm",
            "__ZN4absl12lts_2022062318profiling_internal17ExponentialBiased10InitializeEv",
            "__ZN4absl12lts_2022062315BlockingCounter4WaitEv",
            "__ZN4absl12lts_202206239FromUDateEd",
            "__ZN4absl12lts_202206239ParseTimeENS0_11string_viewES1_PNS0_4TimeEPNSt3__112basic_stringIcNS4_11char_traitsIcEENS4_9allocatorIcEEEE",
            "__ZN4absl12lts_2022062324synchronization_internal12PerThreadSem4InitEPNS0_13base_internal14ThreadIdentityE",
            "__ZN4absl12lts_202206237uint128C2Ef",
            "__ZN4absl12lts_202206238ByStringC1ENS0_11string_viewE",
            "__ZN4absl12lts_2022062313StrReplaceAllENS0_11string_viewESt16initializer_listINSt3__14pairIS1_S1_EEE",
            "__ZNK4absl12lts_2022062324synchronization_internal11GraphCycles7HasEdgeENS1_7GraphIdES3_",
            "__ZN4absl12lts_202206239ParseTimeENS0_11string_viewES1_NS0_8TimeZoneEPNS0_4TimeEPNSt3__112basic_stringIcNS5_11char_traitsIcEENS5_9allocatorIcEEEE",
            "__ZN4absl12lts_2022062319str_format_internal17FormatConvertImplEfNS1_24FormatConversionSpecImplEPNS1_14FormatSinkImplE",
            "__ZN4absl12lts_2022062320raw_logging_internal6RawLogENS0_11LogSeverityEPKciS4_z",
            "__ZN4absl12lts_2022062316numbers_internal18safe_strtou32_baseENS0_11string_viewEPji",
            "__ZN4absl12lts_2022062313time_internal4cctz13utc_time_zoneEv",
            "__ZN4absl12lts_2022062318AlreadyExistsErrorENS0_11string_viewE",
            "__ZN4absl12lts_2022062318container_internal12UnsampleSlowEPNS1_14HashtablezInfoE",
            "__ZN4absl12lts_2022062324synchronization_internal6Waiter4PostEv",
            "__ZN4absl12lts_2022062319bad_optional_accessD1Ev",
            "__ZN4absl12lts_2022062316SeedGenExceptionD2Ev",
            "__ZNK4absl12lts_202206236Status14ForEachPayloadENS0_11FunctionRefIFvNS0_11string_viewERKNS0_4CordEEEE",
            "__ZN4absl12lts_2022062315random_internal11RandenHwAes6AbsorbEPKvPv",
            "__ZN4absl12lts_202206238ByStringC2ENS0_11string_viewE",
            "__ZN4absl12lts_2022062310FormatTimeENS0_4TimeE",
            "__ZNK4absl12lts_2022062311string_view12find_last_ofES1_m",
            "__ZN4absl12lts_2022062316strings_internal6memdupEPKcm",
            "__ZN4absl12lts_2022062318container_internal27SetHashtablezConfigListenerEPFvvE",
            "__ZN4absl12lts_2022062312AbortedErrorENS0_11string_viewE",
            "__ZNK4absl12lts_202206234Cord8EndsWithERKS1_",
            "__ZN4absl12lts_2022062319str_format_internal17FormatConvertImplElNS1_24FormatConversionSpecImplEPNS1_14FormatSinkImplE",
            "__ZN4absl12lts_2022062316numbers_internal19safe_strtou128_baseENS0_11string_viewEPNS0_7uint128Ei",
            "__ZN4absl12lts_2022062313base_internal19ThrowStdDomainErrorERKNSt3__112basic_stringIcNS2_11char_traitsIcEENS2_9allocatorIcEEEE",
            "__ZN4absl12lts_2022062313cord_internal9CordzInfo9TrackCordERNS1_10InlineDataERKS3_NS1_18CordzUpdateTracker16MethodIdentifierE",
            "__ZN4absl12lts_2022062320InvalidArgumentErrorENS0_11string_viewE",
            "__ZNK4absl12lts_2022062313time_internal4cctz12TimeZoneInfo16EquivTransitionsEhh",
            "__ZN4absl12lts_2022062313cord_internal12CordRepBtree7AddDataILNS2_8EdgeTypeE0EEENS0_11string_viewES5_m",
            "__ZN4absl12lts_2022062313ToDoubleHoursENS0_8DurationE",
            "__ZN4absl12lts_2022062313hash_internal15MixingHashState28CombineLargeContiguousImpl32EyPKhm",
            "__ZN4absl12lts_2022062313time_internal4cctz6detaillsERNSt3__113basic_ostreamIcNS4_11char_traitsIcEEEERKNS3_10civil_timeINS3_8hour_tagEEE",
            "__ZN4absl12lts_2022062319str_format_internal13FormatUntypedENS1_17FormatRawSinkImplENS1_21UntypedFormatSpecImplENS0_4SpanIKNS1_13FormatArgImplEEE",
            "__ZN4absl12lts_2022062319str_format_internal17FormatConvertImplEyNS1_24FormatConversionSpecImplEPNS1_14FormatSinkImplE",
            "__ZNK4absl12lts_202206236ByChar4FindENS0_11string_viewEm",
            "__ZN4absl12lts_2022062316strings_internal14CordTestAccess15FlatTagToLengthEh",
            "__ZN4absl12lts_202206234Cord15DestroyCordSlowEv",
            "__ZN4absl12lts_2022062311UnparseFlagENS0_4TimeE",
            "__ZN4absl12lts_2022062319str_format_internal17FormatConvertImplEtNS1_24FormatConversionSpecImplEPNS1_14FormatSinkImplE",
            "__ZN4absl12lts_2022062320IsFailedPreconditionERKNS0_6StatusE",
            "__ZN4absl12lts_202206238DurationmIES1_",
            "__ZN4absl12lts_2022062319str_format_internal16ParsedFormatBaseC1ENS0_11string_viewEbSt16initializer_listINS0_23FormatConversionCharSetEE",
            "__ZN4absl12lts_2022062313base_internal18ThrowStdLogicErrorERKNSt3__112basic_stringIcNS2_11char_traitsIcEENS2_9allocatorIcEEEE",
            "__ZNK4absl12lts_202206234Cord11CompareImplERKS1_",
            "__ZN4absl12lts_2022062315TimeFromTimevalE7timeval",
            "__ZNK4absl12lts_202206236Status10GetPayloadENS0_11string_viewE",
            "__ZNK4absl12lts_202206236Status12ToStringSlowENS0_18StatusToStringModeE",
            "__ZNK4absl12lts_2022062324synchronization_internal11GraphCycles11IsReachableENS1_7GraphIdES3_",
            "__ZN4absl12lts_2022062313base_internal18ThrowStdOutOfRangeEPKc",
            "__ZN4absl12lts_2022062313time_internal4cctz6detaillsERNSt3__113basic_ostreamIcNS4_11char_traitsIcEEEERKNS3_10civil_timeINS3_10minute_tagEEE",
            "__ZN4absl12lts_2022062313base_internal8StrErrorEi",
            "__ZN4absl12lts_2022062310ToTimespecENS0_8DurationE",
            "__ZN4absl12lts_2022062314ParseCivilTimeENS0_11string_viewEPNS0_13time_internal4cctz6detail10civil_timeINS2_10second_tagEEE",
            "__ZN4absl12lts_2022062318container_internal31SetHashtablezMaxSamplesInternalEi",
            "__ZN4absl12lts_202206235Mutex10UnlockSlowEPNS0_15SynchWaitParamsE",
            "__ZN4absl12lts_2022062313time_internal4cctz9time_zone4Impl24ClearTimeZoneMapTestOnlyEv",
            "__ZNK4absl12lts_202206238TimeZone14PrevTransitionENS0_4TimeEPNS1_15CivilTransitionE",
            "__ZN4absl12lts_2022062310FormatTimeENS0_4TimeENS0_8TimeZoneE",
            "__ZN4absl12lts_202206234Cord13ChunkIterator19AdvanceAndReadBytesEm",
            "__ZN4absl12lts_2022062310ToTimespecENS0_4TimeE",
            "__ZN4absl12lts_202206235Mutex26ReaderLockWhenWithDeadlineERKNS0_9ConditionENS0_4TimeE",
            "__ZN4absl12lts_202206235Mutex16AwaitWithTimeoutERKNS0_9ConditionENS0_8DurationE",
            "__ZN4absl12lts_2022062318container_internal23GetHashtablezMaxSamplesEv",
            "__ZN4absl12lts_202206237CondVar15WaitWithTimeoutEPNS0_5MutexENS0_8DurationE",
            "__ZN4absl12lts_20220623lsERNSt3__113basic_ostreamIcNS1_11char_traitsIcEEEENS0_18LogSeverityAtLeastE",
            "__ZN4absl12lts_2022062315BlockingCounter14DecrementCountEv",
            "__ZN4absl12lts_2022062313ToChronoHoursENS0_8DurationE",
            "__ZN4absl12lts_2022062316strings_internal6memspnEPKcmS3_",
            "__ZN4absl12lts_2022062319str_format_internal9SummarizeENS1_21UntypedFormatSpecImplENS0_4SpanIKNS1_13FormatArgImplEEE",
            "__ZN4absl12lts_2022062313base_internal19ThrowStdLengthErrorEPKc",
            "__ZN4absl12lts_2022062314ParseCivilTimeENS0_11string_viewEPNS0_13time_internal4cctz6detail10civil_timeINS2_9month_tagEEE",
            "__ZN4absl12lts_2022062310FormatTimeENS0_11string_viewENS0_4TimeENS0_8TimeZoneE",
            "__ZNK4absl12lts_2022062312Notification30WaitForNotificationWithTimeoutENS0_8DurationE",
            "__ZN4absl12lts_2022062313time_internal4cctz12TimeZoneInfo17GetTransitionTypeEibRKNSt3__112basic_stringIcNS4_11char_traitsIcEENS4_9allocatorIcEEEEPh",
            "__ZN4absl12lts_202206239ConditionC1EPKb",
            "__ZNK4absl12lts_2022062313time_internal4cctz12TimeZoneInfo8MakeTimeERKNS2_6detail10civil_timeINS4_10second_tagEEE",
            "__ZN4absl12lts_202206239ToTimevalENS0_8DurationE",
            "__ZN4absl12lts_2022062312ToUnixMicrosENS0_4TimeE",
            "__ZN4absl12lts_2022062313cord_internal11CordRepRing4CopyEPS2_jjm",
            "__ZN4absl12lts_2022062313cord_internal11CordRepRing10AppendLeafEPS2_PNS1_7CordRepEmm",
            "__ZN4absl12lts_2022062321RegisterMutexProfilerEPFvxE",
            "__ZN4absl12lts_2022062313cord_internal12CordRepBtree19ExtractAppendBufferEPS2_m",
            "__ZN4absl12lts_2022062310SimpleAtodENS0_11string_viewEPd",
            "__ZN4absl12lts_2022062313time_internal4cctz17FixedOffsetToAbbrERKNSt3__16chrono8durationIxNS3_5ratioILl1ELl1EEEEE",
            "__ZN4absl12lts_2022062317IsUnauthenticatedERKNS0_6StatusE",
            "__ZN4absl12lts_2022062317BadStatusOrAccessC1EOS1_",
            "__ZN4absl12lts_2022062319str_format_internal17FormatConvertImplEsNS1_24FormatConversionSpecImplEPNS1_14FormatSinkImplE",
            "__ZN4absl12lts_2022062313ParseDurationENS0_11string_viewEPNS0_8DurationE",
            "__ZNK4absl12lts_2022062313time_internal4cctz12TimeZoneLibC14NextTransitionERKNSt3__16chrono10time_pointINS5_12system_clockENS5_8durationIxNS4_5ratioILl1ELl1EEEEEEEPNS2_9time_zone16civil_transitionE",
            "__ZN4absl12lts_2022062313IsUnavailableERKNS0_6StatusE",
            "__ZN4absl12lts_2022062320raw_logging_internal17RegisterAbortHookEPFvPKciS3_S3_S3_E",
            "__ZN4absl12lts_2022062313cord_internal9CordzInfoD1Ev",
            "__ZN4absl12lts_202206234Cord23GetAppendBufferSlowPathEmm",
            "__ZN4absl12lts_2022062313time_internallsERNSt3__113basic_ostreamIcNS2_11char_traitsIcEEEENS1_4cctz6detail10civil_timeINS1_10second_tagEEE",
            "__ZNK4absl12lts_2022062313cord_internal9CordzInfo18GetCordzStatisticsEv",
            "__ZN4absl12lts_2022062313cord_internallsERNSt3__113basic_ostreamIcNS2_11char_traitsIcEEEERKNS1_11CordRepRingE",
            "__ZN4absl12lts_2022062313cord_internal12CordRepBtree11PrependSlowEPS2_PNS1_7CordRepE",
            "__ZN4absl12lts_2022062313time_internallsERNSt3__113basic_ostreamIcNS2_11char_traitsIcEEEENS1_4cctz6detail10civil_timeINS1_7day_tagEEE",
            "__ZN4absl12lts_2022062314Base64UnescapeENS0_11string_viewEPNSt3__112basic_stringIcNS2_11char_traitsIcEENS2_9allocatorIcEEEE",
            "__ZN4absl12lts_202206234Cord12RemoveSuffixEm",
            "__ZNK4absl12lts_202206234CordcvNSt3__112basic_stringIcNS2_11char_traitsIcEENS2_9allocatorIcEEEEEv",
            "__ZN4absl12lts_2022062313cord_internal9CordzInfo15FillParentStackEPKS2_PPv",
            "__ZN4absl12lts_202206234Cord9InlineRep11PrependTreeEPNS0_13cord_internal7CordRepENS3_18CordzUpdateTracker16MethodIdentifierE",
            "__ZN4absl12lts_2022062313base_internal23ThrowStdInvalidArgumentERKNSt3__112basic_stringIcNS2_11char_traitsIcEENS2_9allocatorIcEEEE",
            "__ZN4absl12lts_2022062319IsResourceExhaustedERKNS0_6StatusE",
            "__ZN4absl12lts_202206235Mutex20LockWhenWithDeadlineERKNS0_9ConditionENS0_4TimeE",
            "__ZNK4absl12lts_2022062316SeedGenException4whatEv",
            "__ZN4absl12lts_2022062318bad_variant_accessD1Ev",
            "__ZN4absl12lts_2022062313cord_internal12CordRepBtree10CopyPrefixEmb",
            "__ZN4absl12lts_202206238DurationmLEd",
            "__ZN4absl12lts_2022062313base_internal7NumCPUsEv",
            "__ZN4absl12lts_2022062316strings_internal33CalculateBase64EscapedLenInternalEmb",
            "__ZN4absl12lts_2022062313cord_internal12CordRepBtree11AssertValidEPS2_b",
            "__ZN4absl12lts_2022062315AbslUnparseFlagENS0_8DurationE",
            "__ZNK4absl12lts_202206236Status8raw_codeEv",
            "__ZN4absl12lts_2022062313cord_internal11CordRepRing11PrependLeafEPS2_PNS1_7CordRepEmm",
            "__ZN4absl12lts_2022062316UnavailableErrorENS0_11string_viewE",
            "__ZN4absl12lts_2022062320DurationFromTimespecE8timespec",
            "__ZN4absl12lts_2022062311ToUniversalENS0_4TimeE",
            "__ZN4absl12lts_202206236Status10SetPayloadENS0_11string_viewENS0_4CordE",
            "__ZN4absl12lts_202206236Status12ErasePayloadENS0_11string_viewE",
            "__ZN4absl12lts_2022062313time_internal4cctz6detaillsERNSt3__113basic_ostreamIcNS4_11char_traitsIcEEEERKNS3_10civil_timeINS3_10second_tagEEE",
            "__ZNK4absl12lts_2022062313time_internal4cctz12TimeZoneInfo9LocalTimeExRKNS2_14TransitionTypeE",
            "__ZN4absl12lts_2022062313base_internal8SpinLock8SpinLoopEv",
            "__ZN4absl12lts_2022062313hash_internal10CityHash64EPKcm",
            "__ZN4absl12lts_202206234CordC2ENS0_11string_viewENS0_13cord_internal18CordzUpdateTracker16MethodIdentifierE",
            "__ZN4absl12lts_202206235Mutex24EnableInvariantDebuggingEPFvPvES2_",
            "__ZN4absl12lts_2022062313base_internal19ThrowStdLengthErrorERKNSt3__112basic_stringIcNS2_11char_traitsIcEENS2_9allocatorIcEEEE",
            "__ZN4absl12lts_2022062315random_internal11RandenHwAes8GenerateEPKvPv",
            "__ZN4absl12lts_202206234Cord6AppendERKS1_",
            "__ZN4absl12lts_2022062313cord_internal9CordzInfo4HeadERKNS1_13CordzSnapshotE",
            "__ZN4absl12lts_202206238AlphaNumC1ENS0_3DecE",
            "__ZNK4absl12lts_2022062313time_internal4cctz12TimeZoneInfo14PrevTransitionERKNSt3__16chrono10time_pointINS5_12system_clockENS5_8durationIxNS4_5ratioILl1ELl1EEEEEEEPNS2_9time_zone16civil_transitionE",
            "__ZN4absl12lts_2022062320ToChronoMillisecondsENS0_8DurationE",
            "__ZN4absl12lts_202206236Status11EmptyStringEv",
            "__ZN4absl12lts_2022062313hash_internal10CityHash32EPKcm",
            "__ZN4absl12lts_2022062321ParseLenientCivilTimeENS0_11string_viewEPNS0_13time_internal4cctz6detail10civil_timeINS2_9month_tagEEE",
            "__ZN4absl12lts_2022062323FailedPreconditionErrorENS0_11string_viewE",
            "__ZN4absl12lts_20220623lsERNSt3__113basic_ostreamIcNS1_11char_traitsIcEEEENS0_7uint128E",
            "__ZN4absl12lts_2022062310IsNotFoundERKNS0_6StatusE",
            "__ZN4absl12lts_202206239StrAppendEPNSt3__112basic_stringIcNS1_11char_traitsIcEENS1_9allocatorIcEEEERKNS0_8AlphaNumESB_SB_",
            "__ZN4absl12lts_2022062315random_internal15GetSaltMaterialEv",
            "__ZN4absl12lts_2022062318Utf8SafeCHexEscapeENS0_11string_viewE",
            "__ZN4absl12lts_2022062319str_format_internal17LengthModToStringENS1_9LengthModE",
            "__ZN4absl12lts_2022062313cord_internal11CordRepRing6AppendEPS2_NS0_11string_viewEm",
            "__ZN4absl12lts_2022062315IsUnimplementedERKNS0_6StatusE",
            "__ZN4absl12lts_2022062319str_format_internal17FormatConvertImplENS0_11string_viewENS1_24FormatConversionSpecImplEPNS1_14FormatSinkImplE",
            "__ZN4absl12lts_2022062318container_internal19IsHashtablezEnabledEv",
            "__ZNK4absl12lts_2022062313time_internal4cctz9time_zone14effective_implEv",
            "__ZNK4absl12lts_2022062311string_view16find_last_not_ofES1_m",
            "__ZN4absl12lts_2022062315FormatCivilTimeENS0_13time_internal4cctz6detail10civil_timeINS1_10minute_tagEEE",
            "__ZN4absl12lts_2022062313base_internal13LowLevelAlloc4FreeEPv",
            "__ZN4absl12lts_20220623lsERNSt3__113basic_ostreamIcNS1_11char_traitsIcEEEERKNS0_4CordE",
            "__ZNK4absl12lts_202206238ByLength4FindENS0_11string_viewEm",
            "__ZN4absl12lts_2022062319str_format_internal17FormatConvertImplEjNS1_24FormatConversionSpecImplEPNS1_14FormatSinkImplE",
            "__ZN4absl12lts_2022062313cord_internal11CordRepRing14CreateFromLeafEPNS1_7CordRepEmmm",
            "__ZN4absl12lts_2022062321ParseLenientCivilTimeENS0_11string_viewEPNS0_13time_internal4cctz6detail10civil_timeINS2_10minute_tagEEE",
            "__ZN4absl12lts_2022062313base_internal8SpinLock8SlowLockEv",
            "__ZN4absl12lts_202206235Mutex25ReaderLockWhenWithTimeoutERKNS0_9ConditionENS0_8DurationE",
            "__ZN4absl12lts_2022062317BadStatusOrAccessC1ENS0_6StatusE",
            "__ZN4absl12lts_202206234Cord9InlineRep11AppendArrayENS0_11string_viewENS0_13cord_internal18CordzUpdateTracker16MethodIdentifierE",
            "__ZN4absl12lts_2022062319substitute_internal3ArgC2ENS0_3DecE",
            "__ZN4absl12lts_202206235Mutex5AwaitERKNS0_9ConditionE",
            "__ZN4absl12lts_202206239IsAbortedERKNS0_6StatusE",
            "__ZN4absl12lts_202206234CordC1ENS0_11string_viewENS0_13cord_internal18CordzUpdateTracker16MethodIdentifierE",
            "__ZN4absl12lts_2022062313base_internal8SpinLock10SlowUnlockEj",
            "__ZN4absl12lts_2022062320StartsWithIgnoreCaseENS0_11string_viewES1_",
            "__ZN4absl12lts_2022062313cord_internal9CordzInfo5TrackEv",
            "__ZN4absl12lts_202206239Condition19CallVoidPtrFunctionEPKS1_",
            "__ZNK4absl12lts_2022062313cord_internal12CordRepBtree6IsFlatEPNS0_11string_viewE",
            "__ZN4absl12lts_2022062321ParseLenientCivilTimeENS0_11string_viewEPNS0_13time_internal4cctz6detail10civil_timeINS2_8year_tagEEE",
            "__ZN4absl12lts_2022062313base_internal10CycleClock3NowEv",
            "__ZN4absl12lts_2022062324synchronization_internal11GraphCycles7HasNodeENS1_7GraphIdE",
            "__ZN4absl12lts_2022062315ToDoubleMinutesENS0_8DurationE",
            "__ZNK4absl12lts_2022062313time_internal4cctz12TimeZoneInfo11DescriptionEv",
            "__ZN4absl12lts_2022062316strings_internal14CordTestAccess21SizeofCordRepExternalEv",
            "__ZN4absl12lts_2022062313time_internallsERNSt3__113basic_ostreamIcNS2_11char_traitsIcEEEENS1_4cctz6detail10civil_timeINS1_9month_tagEEE",
            "__ZN4absl12lts_2022062315random_internal11RandenHwAes7GetKeysEv",
            "__ZN4absl12lts_2022062313cord_internal12CordRepBtree19GetAppendBufferSlowEm",
            "__ZN4absl12lts_2022062317optional_internal25throw_bad_optional_accessEv",
            "__ZN4absl12lts_202206234Cord10GetFlatAuxEPNS0_13cord_internal7CordRepEPNS0_11string_viewE",
            "__ZN4absl12lts_202206237Barrier5BlockEv",
            "__ZN4absl12lts_2022062318RegisterSymbolizerEPFbPKvPciE",
            "__ZN4absl12lts_2022062316strings_internal18ApplySubstitutionsENS0_11string_viewEPNSt3__16vectorINS1_18ViableSubstitutionENS3_9allocatorIS5_EEEEPNS3_12basic_stringIcNS3_11char_traitsIcEENS6_IcEEEE",
            "__ZN4absl12lts_2022062313time_internallsERNSt3__113basic_ostreamIcNS2_11char_traitsIcEEEENS1_4cctz6detail10civil_timeINS1_10minute_tagEEE",
            "__ZN4absl12lts_20220623lsERNSt3__113basic_ostreamIcNS1_11char_traitsIcEEEENS0_10StatusCodeE",
            "__ZNK4absl12lts_2022062313cord_internal9CordzInfo14GetParentStackEv",
            "__ZNK4absl12lts_2022062313time_internal4cctz12TimeZoneInfo6Header10DataLengthEm",
            "__ZN4absl12lts_2022062318container_internal14HashtablezInfo18PrepareForSamplingExm",
            "__ZN4absl12lts_2022062313cord_internal18CordRepBtreeReader4ReadEmmRPNS1_7CordRepE",
            "__ZN4absl12lts_2022062313base_internal12GetCachedTIDEv",
            "__ZN4absl12lts_2022062319substitute_internal3ArgC2ENS0_3HexE",
            "__ZN4absl12lts_2022062313base_internal8SpinLockC2ENS1_14SchedulingModeE",
            "__ZN4absl12lts_2022062313time_internal4cctz12TimeZoneLibCC2ERKNSt3__112basic_stringIcNS4_11char_traitsIcEENS4_9allocatorIcEEEE",
            "__ZN4absl12lts_2022062313time_internal4cctz12TimeZoneInfo17ResetToBuiltinUTCERKNSt3__16chrono8durationIxNS4_5ratioILl1ELl1EEEEE",
            "__ZN4absl12lts_2022062313cord_internal12CordRepBtree12RemoveSuffixEPS2_m",
            "__ZN4absl12lts_2022062312bad_any_castD2Ev",
            "__ZN4absl12lts_2022062313time_internal4cctz12TimeZoneInfo4LoadEPNS2_14ZoneInfoSourceE",
            "__ZN4absl12lts_2022062313hash_internal15MixingHashState16LowLevelHashImplEPKhm",
            "__ZN4absl12lts_2022062313cord_internal11CordRepRing10AppendSlowEPS2_PNS1_7CordRepE",
            "__ZN4absl12lts_202206237CondVar6RemoveEPNS0_13base_internal14PerThreadSynchE",
            "__ZNK4absl12lts_202206238TimeZone2AtENS0_4TimeE",
            "__ZN4absl12lts_2022062318container_internal14HashtablezInfoD1Ev",
            "__ZN4absl12lts_202206237uint128C1Ef",
            "__ZN4absl12lts_2022062316numbers_internal15FastIntToBufferEyPc",
            "__ZN4absl12lts_2022062313base_internal18ThrowStdRangeErrorERKNSt3__112basic_stringIcNS2_11char_traitsIcEENS2_9allocatorIcEEEE",
            "__ZN4absl12lts_202206235Mutex14EnableDebugLogEPKc",
            "__ZN4absl12lts_2022062317BadStatusOrAccessaSERKS1_",
            "__ZN4absl12lts_2022062319str_format_internal17FormatConvertImplEcNS1_24FormatConversionSpecImplEPNS1_14FormatSinkImplE",
            "__ZN4absl12lts_2022062324synchronization_internal12PerThreadSem23GetThreadBlockedCounterEv",
            "__ZN4absl12lts_2022062313cord_internal11CordRepRing12RemoveSuffixEPS2_mm",
            "__ZN4absl12lts_2022062318debugging_internal17AddressIsReadableEPKv",
            "__ZN4absl12lts_2022062315FormatCivilTimeENS0_13time_internal4cctz6detail10civil_timeINS1_8hour_tagEEE",
            "__ZN4absl12lts_2022062313cord_internal9CordzInfo9TrackCordERNS1_10InlineDataENS1_18CordzUpdateTracker16MethodIdentifierE",
            "__ZN4absl12lts_2022062313base_internal18ThrowStdOutOfRangeERKNSt3__112basic_stringIcNS2_11char_traitsIcEENS2_9allocatorIcEEEE",
            "__ZN4absl12lts_2022062313time_internal4cctz9time_zone4ImplC2ERKNSt3__112basic_stringIcNS5_11char_traitsIcEENS5_9allocatorIcEEEE",
            "__ZN4absl12lts_2022062313time_internal4cctz6detail6formatERKNSt3__112basic_stringIcNS4_11char_traitsIcEENS4_9allocatorIcEEEERKNS4_6chrono10time_pointINSD_12system_clockENSD_8durationIxNS4_5ratioILl1ELl1EEEEEEERKNSG_IxNSH_ILl1ELl1000000000000000EEEEERKNS2_9time_zoneE",
            "__ZN4absl12lts_202206238AlphaNumC1ENS0_3HexE",
            "__ZN4absl12lts_2022062320ToDoubleMicrosecondsENS0_8DurationE",
            "__ZN4absl12lts_2022062326RemoveExtraAsciiWhitespaceEPNSt3__112basic_stringIcNS1_11char_traitsIcEENS1_9allocatorIcEEEE",
            "__ZN4absl12lts_20220623lsERNSt3__113basic_ostreamIcNS1_11char_traitsIcEEEENS0_17LogSeverityAtMostE",
            "__ZN4absl12lts_2022062316HexStringToBytesENS0_11string_viewE",
            "__ZN4absl12lts_2022062310IsInternalERKNS0_6StatusE",
            "__ZN4absl12lts_2022062316variant_internal21ThrowBadVariantAccessEv",
            "__ZNK4absl12lts_2022062313time_internal4cctz9time_zone15prev_transitionERKNSt3__16chrono10time_pointINS5_12system_clockENS5_8durationIxNS4_5ratioILl1ELl1EEEEEEEPNS3_16civil_transitionE",
            "__ZN4absl12lts_2022062316numbers_internal17safe_strto32_baseENS0_11string_viewEPii",
            "__ZN4absl12lts_2022062319str_format_internal13FlagsToStringENS1_5FlagsE",
            "__ZN4absl12lts_2022062316numbers_internal17SixDigitsToBufferEdPc",
            "__ZN4absl12lts_202206234Cord17AssignLargeStringEONSt3__112basic_stringIcNS2_11char_traitsIcEENS2_9allocatorIcEEEE",
            "__ZN4absl12lts_2022062313AbslParseFlagENS0_11string_viewEPNS0_8DurationEPNSt3__112basic_stringIcNS4_11char_traitsIcEENS4_9allocatorIcEEEE",
            "__ZN4absl12lts_2022062314ParseCivilTimeENS0_11string_viewEPNS0_13time_internal4cctz6detail10civil_timeINS2_8year_tagEEE",
            "__ZNK4absl12lts_202206235Mutex13AssertNotHeldEv",
            "__ZN4absl12lts_2022062316strings_internal14CordTestAccess22SizeofCordRepSubstringEv",
            "__ZN4absl12lts_202206234Cord9InlineRep17PrependTreeToTreeEPNS0_13cord_internal7CordRepENS3_18CordzUpdateTracker16MethodIdentifierE",
            "__ZN4absl12lts_2022062313cord_internal12CordRepBtree10AppendSlowEPS2_PNS1_7CordRepE",
            "__ZN4absl12lts_2022062320DefaultStackUnwinderEPPvPiiiPKvS3_",
            "__ZNK4absl12lts_202206238ByString4FindENS0_11string_viewEm",
            "__ZN4absl12lts_2022062313cord_internal7CordRep7DestroyEPS2_",
            "__ZN4absl12lts_2022062314CancelledErrorENS0_11string_viewE",
            "__ZN4absl12lts_2022062319str_format_internal12BindWithPackEPKNS1_17UnboundConversionENS0_4SpanIKNS1_13FormatArgImplEEEPNS1_15BoundConversionE",
            "__ZN4absl12lts_2022062315AsciiStrToUpperEPNSt3__112basic_stringIcNS1_11char_traitsIcEENS1_9allocatorIcEEEE",
            "__ZN4absl12lts_2022062310from_charsEPKcS2_RfNS0_12chars_formatE",
            "__ZN4absl12lts_2022062315random_internal28HasRandenHwAesImplementationEv",
            "__ZN4absl12lts_202206239CUnescapeENS0_11string_viewEPNSt3__112basic_stringIcNS2_11char_traitsIcEENS2_9allocatorIcEEEES9_",
            "__ZN4absl12lts_2022062313time_internal4cctz6detaillsERNSt3__113basic_ostreamIcNS4_11char_traitsIcEEEERKNS3_10civil_timeINS3_8year_tagEEE",
            "__ZNK4absl12lts_2022062313cord_internal11CordzHandle12SafeToDeleteEv",
            "__ZN4absl12lts_2022062313cord_internal11CordRepRing10CreateSlowEPNS1_7CordRepEm",
            "__ZN4absl12lts_2022062318bad_variant_accessD0Ev",
            "__ZN4absl12lts_202206237CondVar10WaitCommonEPNS0_5MutexENS0_24synchronization_internal13KernelTimeoutE",
            "__ZN4absl12lts_2022062319ToInt64MillisecondsENS0_8DurationE",
            "__ZN4absl12lts_2022062313cord_internal12CordRepBtree7SubTreeEmm",
            "__ZN4absl12lts_2022062319str_format_internal17FormatConvertImplERKNSt3__112basic_stringIcNS2_11char_traitsIcEENS2_9allocatorIcEEEENS1_24FormatConversionSpecImplEPNS1_14FormatSinkImplE",
            "__ZN4absl12lts_2022062319substitute_internal3ArgC1ENS0_3DecE",
            "__ZN4absl12lts_2022062320InitializeSymbolizerEPKc",
            "__ZN4absl12lts_2022062320ToChronoMicrosecondsENS0_8DurationE",
            "__ZNK4absl12lts_2022062313cord_internal12CordRepBtree12GetCharacterEm",
            "__ZN4absl12lts_202206235Mutex17IncrementSynchSemEPS1_PNS0_13base_internal14PerThreadSynchE",
            "__ZN4absl12lts_2022062312Base64EscapeENS0_11string_viewEPNSt3__112basic_stringIcNS2_11char_traitsIcEENS2_9allocatorIcEEEE",
            "__ZN4absl12lts_2022062319substitute_internal3ArgC1EPKv",
            "__ZN4absl12lts_2022062321ParseLenientCivilTimeENS0_11string_viewEPNS0_13time_internal4cctz6detail10civil_timeINS2_10second_tagEEE",
            "__ZN4absl12lts_2022062315random_internal24InitDiscreteDistributionEPNSt3__16vectorIdNS2_9allocatorIdEEEE",
            "__ZN4absl12lts_202206237CEscapeENS0_11string_viewE",
            "__ZN4absl12lts_20220623lsERNSt3__113basic_ostreamIcNS1_11char_traitsIcEEEENS0_11string_viewE",
            "__ZN4absl12lts_2022062316strings_internal7mempbrkEPKcmS3_",
            "__ZN4absl12lts_2022062318UnimplementedErrorENS0_11string_viewE",
            "__ZN4absl12lts_2022062314ToInt64MinutesENS0_8DurationE",
            "__ZN4absl12lts_202206234Cord5ClearEv",
            "__ZN4absl12lts_2022062312bad_any_castD1Ev",
            "__ZN4absl12lts_2022062313cord_internal12CordRepBtree11AssertValidEPKS2_b",
            "__ZN4absl12lts_2022062315ConvertDateTimeExiiiiiNS0_8TimeZoneE",
            "__ZN4absl12lts_2022062315status_internal23GetStatusPayloadPrinterEv",
            "__ZN4absl12lts_202206237CondVarD1Ev",
            "__ZNK4absl12lts_202206238TimeZone14NextTransitionENS0_4TimeEPNS1_15CivilTransitionE",
            "__ZN4absl12lts_2022062313cord_internal12CordRepBtree7RebuildEPPS2_S3_b",
            "__ZN4absl12lts_2022062313time_internal4cctz10TimeZoneIfD0Ev",
            "__ZN4absl12lts_2022062313base_internal23ThrowStdInvalidArgumentEPKc",
            "__ZN4absl12lts_2022062313cord_internal11CordRepRing21SetCapacityForTestingEm",
            "__ZN4absl12lts_2022062315FormatCivilTimeENS0_13time_internal4cctz6detail10civil_timeINS1_9month_tagEEE",
            "__ZN4absl12lts_202206235Mutex4LockEv",
            "__ZN4absl12lts_2022062313cord_internal10CordRepCrc7DestroyEPS2_",
            "__ZN4absl12lts_2022062312Notification6NotifyEv",
            "__ZN4absl12lts_2022062312FDivDurationENS0_8DurationES1_",
            "__ZN4absl12lts_2022062316SeedGenExceptionD1Ev",
            "__ZN4absl12lts_2022062313time_internal4cctz9time_zone4Impl3UTCEv",
            "__ZN4absl12lts_2022062315IsAlreadyExistsERKNS0_6StatusE",
            "__ZN4absl12lts_202206237uint128C1Ee",
            "__ZN4absl12lts_202206235Mutex17AwaitWithDeadlineERKNS0_9ConditionENS0_4TimeE",
            "__ZN4absl12lts_2022062319str_format_internal17FormatConvertImplENS1_7VoidPtrENS1_24FormatConversionSpecImplEPNS1_14FormatSinkImplE",
            "__ZN4absl12lts_2022062313cord_internal11CordzHandle6DeleteEPS2_",
            "__ZN4absl12lts_2022062313cord_internal11CordRepRing9SubLengthEjm",
            "__ZN4absl12lts_202206234CeilENS0_8DurationES1_",
            "__ZNK4absl12lts_202206234Time2InENS0_8TimeZoneE",
            "__ZN4absl12lts_2022062315ToChronoSecondsENS0_8DurationE",
            "__ZN4absl12lts_2022062312NotificationD2Ev",
            "__ZN4absl12lts_202206237CondVar6WakeupEPNS0_13base_internal14PerThreadSynchE",
            "__ZN4absl12lts_202206237CondVar6SignalEv",
            "__ZNK4absl12lts_202206235Mutex10AssertHeldEv",
            "__ZN4absl12lts_2022062318container_internal28SetHashtablezSampleParameterEi",
            "__ZN4absl12lts_202206238AlphaNumC2ENS0_3DecE",
            "__ZN4absl12lts_202206236StrCatERKNS0_8AlphaNumES3_S3_",
            "__ZN4absl12lts_2022062313cord_internal12CordRepBtree7DestroyEPS2_",
            "__ZN4absl12lts_2022062314ToInt64SecondsENS0_8DurationE",
            "__ZNK4absl12lts_2022062313cord_internal9CordzInfo8GetStackEv",
            "__ZN4absl12lts_202206239ToTimevalENS0_4TimeE",
            "__ZN4absl12lts_2022062318profiling_internal17ExponentialBiased9GetStrideEx",
            "__ZN4absl12lts_2022062319DurationFromTimevalE7timeval",
            "__ZN4absl12lts_2022062313base_internal8SpinLock16DecodeWaitCyclesEj",
            "__ZN4absl12lts_2022062313cord_internal10CordRepCrc3NewEPNS1_7CordRepEj",
            "__ZN4absl12lts_202206235Mutex7TryLockEv",
            "__ZN4absl12lts_2022062313time_internal4cctz12TimeZoneInfo17ExtendTransitionsEv",
            "__ZN4absl12lts_2022062320raw_logging_internal30RegisterLogFilterAndPrefixHookEPFbNS0_11LogSeverityEPKciPPcPiE",
            "__ZN4absl12lts_2022062313cord_internal12CordRepBtree12ExtractFrontEPS2_",
            "__ZN4absl12lts_2022062319str_format_internal17FormatConvertImplEaNS1_24FormatConversionSpecImplEPNS1_14FormatSinkImplE",
            "__ZN4absl12lts_2022062318container_internal16RecordInsertSlowEPNS1_14HashtablezInfoEmm",
            "__ZN4absl12lts_2022062313cord_internal12CordRepBtree7PrependEPS2_NS0_11string_viewEm",
            "__ZNK4absl12lts_202206234Cord8EndsWithENS0_11string_viewE",
            "__ZN4absl12lts_202206236StrCatERKNS0_8AlphaNumES3_S3_S3_",
            "__ZN4absl12lts_2022062310SimpleAtofENS0_11string_viewEPf",
            "__ZN4absl12lts_2022062318container_internal21ShouldInsertBackwardsEmPKNS1_6ctrl_tE",
            "__ZN4absl12lts_202206238ByLengthC1El",
            "__ZN4absl12lts_2022062313base_internal24SpinLockSuggestedDelayNSEi",
            "__ZN4absl12lts_2022062313cord_internal12CordRepBtree10MergeTreesEPS2_S3_",
            "__ZNK4absl12lts_2022062313time_internal4cctz12TimeZoneInfo14NextTransitionERKNSt3__16chrono10time_pointINS5_12system_clockENS5_8durationIxNS4_5ratioILl1ELl1EEEEEEEPNS2_9time_zone16civil_transitionE",
            "__ZN4absl12lts_202206238DurationrMES1_",
            "__ZN4absl12lts_2022062310SimpleAtobENS0_11string_viewEPb",
            "__ZN4absl12lts_2022062318container_internal14HashtablezInfoC1Ev",
            "__ZN4absl12lts_2022062312IsOutOfRangeERKNS0_6StatusE",
            "__ZN4absl12lts_2022062319str_format_internal17FormatConvertImplEiNS1_24FormatConversionSpecImplEPNS1_14FormatSinkImplE",
            "__ZN4absl12lts_202206235Mutex19LockWhenWithTimeoutERKNS0_9ConditionENS0_8DurationE",
            "__ZN4absl12lts_202206239Condition15GuaranteedEqualEPKS1_S3_",
            "__ZN4absl12lts_2022062313base_internal12SpinLockWaitEPNSt3__16atomicIjEEiPKNS1_22SpinLockWaitTransitionENS1_14SchedulingModeE",
            "__ZNK4absl12lts_2022062313cord_internal12CordRepBtree6IsFlatEmmPNS0_11string_viewE",
            "__ZN4absl12lts_2022062324synchronization_internal12PerThreadSem4TickEPNS0_13base_internal14ThreadIdentityE",
            "__ZN4absl12lts_202206239StrAppendEPNSt3__112basic_stringIcNS1_11char_traitsIcEENS1_9allocatorIcEEEERKNS0_8AlphaNumESB_SB_SB_",
            "__ZN4absl12lts_2022062324synchronization_internal11GraphCycles13GetStackTraceENS1_7GraphIdEPPPv",
            "__ZN4absl12lts_2022062315status_internal23SetStatusPayloadPrinterEPFNS0_8optionalINSt3__112basic_stringIcNS3_11char_traitsIcEENS3_9allocatorIcEEEEEENS0_11string_viewERKNS0_4CordEE",
            "__ZN4absl12lts_2022062313time_internal4cctz10TimeZoneIf4LoadERKNSt3__112basic_stringIcNS4_11char_traitsIcEENS4_9allocatorIcEEEE",
            "__ZNK4absl12lts_2022062312bad_any_cast4whatEv",
            "__ZNK4absl12lts_202206238TimeZone2AtENS0_13time_internal4cctz6detail10civil_timeINS2_10second_tagEEE",
            "__ZN4absl12lts_2022062313time_internal4cctz15local_time_zoneEv",
            "__ZN4absl12lts_2022062318profiling_internal17ExponentialBiased12GetSkipCountEx",
            "__ZN4absl12lts_202206239ConditionC2EPKb",
            "__ZN4absl12lts_202206235Mutex5TransEPKNS0_6MuHowSE",
            "__ZNK4absl12lts_2022062313time_internal4cctz12TimeZoneInfo9TimeLocalERKNS2_6detail10civil_timeINS4_10second_tagEEEx",
            "__ZN4absl12lts_2022062313cord_internal12CordRepBtree10CopySuffixEm",
            "__ZN4absl12lts_2022062321DeadlineExceededErrorENS0_11string_viewE",
            "__ZN4absl12lts_202206236StatusC2ENS0_10StatusCodeENS0_11string_viewE",
            "__ZN4absl12lts_2022062324synchronization_internal6Waiter4PokeEv",
            "__ZN4absl12lts_2022062313cord_internal11CordzHandle41DiagnosticsGetSafeToInspectDeletedHandlesEv",
            "__ZNK4absl12lts_2022062313time_internal4cctz14ZoneInfoSource7VersionEv",
            "__ZNK4absl12lts_2022062313time_internal4cctz12TimeZoneLibC9BreakTimeERKNSt3__16chrono10time_pointINS5_12system_clockENS5_8durationIxNS4_5ratioILl1ELl1EEEEEEE",
            "__ZN4absl12lts_2022062315AbslUnparseFlagENS0_4TimeE",
            "__ZN4absl12lts_2022062313base_internal22ThrowStdUnderflowErrorERKNSt3__112basic_stringIcNS2_11char_traitsIcEENS2_9allocatorIcEEEE",
            "__ZN4absl12lts_2022062313cord_internal9CordzInfo15GetParentMethodEPKS2_",
            "__ZNK4absl12lts_2022062313time_internal4cctz12TimeZoneLibC7VersionEv",
            "__ZN4absl12lts_20220623lsERNSt3__113basic_ostreamIcNS1_11char_traitsIcEEEENS0_6int128E",
            "__ZN4absl12lts_202206235Mutex8LockSlowEPKNS0_6MuHowSEPKNS0_9ConditionEi",
            "__ZN4absl12lts_202206238DurationdVEx",
            "__ZNK4absl12lts_2022062313cord_internal9CordzInfo4NextERKNS1_13CordzSnapshotE",
            "__ZN4absl12lts_2022062310FromChronoERKNSt3__16chrono10time_pointINS2_12system_clockENS2_8durationIxNS1_5ratioILl1ELl1000000EEEEEEE",
            "__ZN4absl12lts_2022062313hash_internal12LowLevelHashEPKvmyPKy",
            "__ZN4absl12lts_2022062313cord_internal11CordRepRing7DestroyEPS2_",
            "__ZNK4absl12lts_2022062313time_internal4cctz12TimeZoneInfo7VersionEv",
            "__ZN4absl12lts_2022062317IsInvalidArgumentERKNS0_6StatusE",
            "__ZN4absl12lts_2022062313base_internal13LowLevelAlloc5ArenaC1Ej",
            "__ZN4absl12lts_202206234Cord9InlineRep19AppendTreeToInlinedEPNS0_13cord_internal7CordRepENS3_18CordzUpdateTracker16MethodIdentifierE",
            "__ZN4absl12lts_202206235MutexD1Ev",
            "__ZN4absl12lts_2022062315random_internal22CPUSupportsRandenHwAesEv",
            "__ZNK4absl12lts_2022062324synchronization_internal11GraphCycles8FindPathENS1_7GraphIdES3_iPS3_",
            "__ZN4absl12lts_2022062313cord_internal12CordRepBtree4DumpEPKNS1_7CordRepENS0_11string_viewEbRNSt3__113basic_ostreamIcNS7_11char_traitsIcEEEE",
            "__ZNK4absl12lts_2022062313time_internal4cctz9time_zone4nameEv",
            "__ZNK4absl12lts_2022062313time_internal4cctz12TimeZoneLibC11DescriptionEv",
            "__ZN4absl12lts_202206239StrAppendEPNSt3__112basic_stringIcNS1_11char_traitsIcEENS1_9allocatorIcEEEERKNS0_8AlphaNumE",
            "__ZN4absl12lts_2022062318ToInt64NanosecondsENS0_8DurationE",
            "__ZN4absl12lts_2022062321PermissionDeniedErrorENS0_11string_viewE",
            "__ZN4absl12lts_2022062313cord_internal14ReverseConsumeEPNS1_7CordRepENS0_11FunctionRefIFvS3_mmEEE",
            "__ZN4absl12lts_2022062318IsDeadlineExceededERKNS0_6StatusE",
            "__ZN4absl12lts_2022062321RegisterCondVarTracerEPFvPKcPKvE",
            "__ZN4absl12lts_2022062313base_internal18ThrowStdLogicErrorEPKc",
            "__ZN4absl12lts_2022062324synchronization_internal11GraphCycles10RemoveEdgeENS1_7GraphIdES3_",
            "__ZN4absl12lts_202206239StrAppendEPNSt3__112basic_stringIcNS1_11char_traitsIcEENS1_9allocatorIcEEEERKNS0_8AlphaNumESB_",
            "__ZN4absl12lts_2022062317ErrnoToStatusCodeEi",
            "__ZN4absl12lts_2022062313cord_internal9CordzInfo4LockENS1_18CordzUpdateTracker16MethodIdentifierE",
            "__ZN4absl12lts_2022062316TimeFromTimespecE8timespec",
            "__ZN4absl12lts_2022062313base_internal19NominalCPUFrequencyEv",
            "__ZN4absl12lts_202206235Mutex17DecrementSynchSemEPS1_PNS0_13base_internal14PerThreadSynchENS0_24synchronization_internal13KernelTimeoutE",
            "__ZN4absl12lts_202206234Cord9InlineRep20PrependTreeToInlinedEPNS0_13cord_internal7CordRepENS3_18CordzUpdateTracker16MethodIdentifierE",
            "__ZN4absl12lts_202206235Mutex18ForgetDeadlockInfoEv",
            "__ZNK4absl12lts_2022062313time_internal4cctz9time_zone15next_transitionERKNSt3__16chrono10time_pointINS5_12system_clockENS5_8durationIxNS4_5ratioILl1ELl1EEEEEEEPNS3_16civil_transitionE",
            "__ZN4absl12lts_2022062312bad_any_castD0Ev",
            "__ZNK4absl12lts_2022062311string_view16find_last_not_ofEcm",
            "__ZN4absl12lts_2022062313cord_internal11CordRepRing16GetPrependBufferEm",
            "__ZN4absl12lts_2022062313time_internal4cctz9time_zone4Impl7UTCImplEv",
            "__ZN4absl12lts_2022062310CHexEscapeENS0_11string_viewE",
            "__ZN4absl12lts_2022062324synchronization_internal6WaiterC2Ev",
            "__ZN4absl12lts_202206235Mutex14ReaderLockWhenERKNS0_9ConditionE",
            "__ZN4absl12lts_2022062313base_internal16ThrowStdBadAllocEv",
            "__ZN4absl12lts_202206239SymbolizeEPKvPci",
            "__ZN4absl12lts_2022062313cord_internal12CordRepBtree14ConsumeBeginToEPS2_mm",
            "__ZN4absl12lts_2022062324synchronization_internal11GraphCycles5GetIdEPv",
            "__ZN4absl12lts_2022062313time_internal4cctz6detaillsERNSt3__113basic_ostreamIcNS4_11char_traitsIcEEEENS3_7weekdayE",
            "__ZN4absl12lts_2022062316strings_internal7memcspnEPKcmS3_",
            "__ZN4absl12lts_2022062318debugging_internal8DemangleEPKcPci",
            "__ZN4absl12lts_2022062313base_internal8SpinLock16EncodeWaitCyclesExx",
            "__ZN4absl12lts_2022062324synchronization_internal12PerThreadSem23SetThreadBlockedCounterEPNSt3__16atomicIiEE",
            "__ZN4absl12lts_2022062319str_format_internal17FormatConvertImplExNS1_24FormatConversionSpecImplEPNS1_14FormatSinkImplE",
            "__ZN4absl12lts_2022062313cord_internal11CordzHandleD0Ev",
            "__ZN4absl12lts_2022062313cord_internal11CordRepRing6DeleteEPS2_",
            "__ZN4absl12lts_2022062314FormatDurationENS0_8DurationE",
            "__ZN4absl12lts_2022062313time_internal4cctz12TimeZoneInfo6Header5BuildERK6tzhead",
            "__ZN4absl12lts_2022062313time_internal12IDivDurationEbNS0_8DurationES2_PS2_",
            "__ZNK4absl12lts_2022062318bad_variant_access4whatEv",
            "__ZN4absl12lts_2022062318container_internal23GlobalHashtablezSamplerEv",
            "__ZNK4absl12lts_2022062319bad_optional_access4whatEv",
            "__ZN4absl12lts_2022062313base_internal30CurrentThreadIdentityIfPresentEv",
            "__ZN4absl12lts_2022062319str_format_internal16ConvertFloatImplEdRKNS1_24FormatConversionSpecImplEPNS1_14FormatSinkImplE",
            "__ZN4absl12lts_2022062313base_internal18ThrowStdRangeErrorEPKc",
            "__ZN4absl12lts_2022062316strings_internal9CatPiecesESt16initializer_listINS0_11string_viewEE",
            "__ZN4absl12lts_2022062313base_internal10CycleClock9FrequencyEv",
            "__ZN4absl12lts_2022062313cord_internal12CordRepBtree7IsValidEPKS2_b",
            "__ZN4absl12lts_2022062316strings_internal12AppendPiecesEPNSt3__112basic_stringIcNS2_11char_traitsIcEENS2_9allocatorIcEEEESt16initializer_listINS0_11string_viewEE",
            "__ZN4absl12lts_2022062321ParseLenientCivilTimeENS0_11string_viewEPNS0_13time_internal4cctz6detail10civil_timeINS2_8hour_tagEEE",
            "__ZN4absl12lts_2022062316SetStackUnwinderEPFiPPvPiiiPKvS3_E",
            "__ZNK4absl12lts_2022062317BadStatusOrAccess6statusEv",
            "__ZN4absl12lts_2022062317BadStatusOrAccessC1ERKS1_",
            "__ZN4absl12lts_2022062318debugging_internal22StackTraceWorksForTestEv",
            "__ZN4absl12lts_2022062319str_format_internal17FormatConvertImplENS0_6int128ENS1_24FormatConversionSpecImplEPNS1_14FormatSinkImplE",
            "__ZN4absl12lts_2022062319WebSafeBase64EscapeENS0_11string_viewEPNSt3__112basic_stringIcNS2_11char_traitsIcEENS2_9allocatorIcEEEE",
            "__ZN4absl12lts_2022062313cord_internal21CordRepBtreeNavigator4ReadEmm",
            "__ZN4absl12lts_2022062315FormatCivilTimeENS0_13time_internal4cctz6detail10civil_timeINS1_8year_tagEEE",
            "__ZN4absl12lts_2022062319ToChronoNanosecondsENS0_8DurationE",
            "__ZN4absl12lts_2022062324synchronization_internal6Waiter4WaitENS1_13KernelTimeoutE",
            "__ZNK4absl12lts_2022062313time_internal4cctz9time_zone11descriptionEv",
            "__ZN4absl12lts_2022062313base_internal19ThrowStdDomainErrorEPKc",
            "__ZN4absl12lts_202206236Status15PrepareToModifyEv",
            "__ZN4absl12lts_202206237CondVar16WaitWithDeadlineEPNS0_5MutexENS0_4TimeE",
            "__ZN4absl12lts_2022062315FormatCivilTimeENS0_13time_internal4cctz6detail10civil_timeINS1_7day_tagEEE",
            "__ZN4absl12lts_202206234Cord12RemovePrefixEm",
            "__ZNK4absl12lts_2022062313time_internal4cctz9time_zone6lookupERKNS2_6detail10civil_timeINS4_10second_tagEEE",
            "__ZN4absl12lts_2022062318container_internal37ConvertDeletedToEmptyAndFullToDeletedEPNS1_6ctrl_tEm",
            "__ZN4absl12lts_2022062312UnknownErrorENS0_11string_viewE",
            "__ZN4absl12lts_2022062313base_internal13LowLevelAlloc5ArenaC2Ej",
            "__ZN4absl12lts_2022062315random_internal10RandenSlow7GetKeysEv",
            "__ZN4absl12lts_2022062313GetStackTraceEPPvii",
            "__ZN4absl12lts_2022062313ErrnoToStatusEiNS0_11string_viewE",
            "__ZN4absl12lts_202206234Cord15ForEachChunkAuxEPNS0_13cord_internal7CordRepENS0_11FunctionRefIFvNS0_11string_viewEEEE",
            "__ZN4absl12lts_2022062329SetMutexDeadlockDetectionModeENS0_15OnDeadlockCycleE",
            "__ZN4absl12lts_2022062318container_internal14HashtablezInfoC2Ev",
            "__ZN4absl12lts_2022062319str_format_internal8SnprintFEPcmNS1_21UntypedFormatSpecImplENS0_4SpanIKNS1_13FormatArgImplEEE",
            "__ZN4absl12lts_2022062321WebSafeBase64UnescapeENS0_11string_viewEPNSt3__112basic_stringIcNS2_11char_traitsIcEENS2_9allocatorIcEEEE",
            "__ZN4absl12lts_2022062315FormatCivilTimeENS0_13time_internal4cctz6detail10civil_timeINS1_10second_tagEEE",
            "__ZNK4absl12lts_2022062317BadStatusOrAccess8InitWhatEv",
            "__ZN4absl12lts_2022062317internal_statusor6Helper26HandleInvalidStatusCtorArgEPNS0_6StatusE",
            "__ZN4absl12lts_2022062313cord_internal11CordRepRing7PrependEPS2_NS0_11string_viewEm",
            "__ZN4absl12lts_2022062319str_format_internal7FprintFEP7__sFILENS1_21UntypedFormatSpecImplENS0_4SpanIKNS1_13FormatArgImplEEE",
            "__ZN4absl12lts_2022062324synchronization_internal6Waiter19InternalCondVarPokeEv",
            "__ZN4absl12lts_2022062314ParseCivilTimeENS0_11string_viewEPNS0_13time_internal4cctz6detail10civil_timeINS2_7day_tagEEE",
            "__ZN4absl12lts_202206239ConditionC2Ev",
            "__ZN4absl12lts_202206234Cord15FlattenSlowPathEv",
            "__ZN4absl12lts_202206237CondVar4WaitEPNS0_5MutexE",
            "__ZNK4absl12lts_2022062311string_view5rfindES1_m",
            "__ZN4absl12lts_202206235Mutex20LockSlowWithDeadlineEPKNS0_6MuHowSEPKNS0_9ConditionENS0_24synchronization_internal13KernelTimeoutEi",
            "__ZN4absl12lts_2022062313base_internal26ClearCurrentThreadIdentityEv",
            "__ZN4absl12lts_2022062313cord_internal11CordzHandle25DiagnosticsGetDeleteQueueEv",
            "__ZN4absl12lts_202206236Status15MovedFromStringEv",
            "__ZN4absl12lts_202206237uint128C1Ed",
            "__ZN4absl12lts_2022062315OutOfRangeErrorENS0_11string_viewE",
            "__ZN4absl12lts_20220623lsERNSt3__113basic_ostreamIcNS1_11char_traitsIcEEEERKNS0_6StatusE",
            "__ZN4absl12lts_2022062325GetStackFramesWithContextEPPvPiiiPKvS3_",
            "__ZN4absl12lts_202206237ToUDateENS0_4TimeE",
            "__ZN4absl12lts_2022062313base_internal20ThrowStdRuntimeErrorERKNSt3__112basic_stringIcNS2_11char_traitsIcEENS2_9allocatorIcEEEE",
            "__ZN4absl12lts_202206235Mutex12ReaderUnlockEv",
            "__ZN4absl12lts_202206236Status10EqualsSlowERKS1_S3_",
            "__ZNK4absl12lts_2022062313time_internal4cctz9time_zone6lookupERKNSt3__16chrono10time_pointINS5_12system_clockENS5_8durationIxNS4_5ratioILl1ELl1EEEEEEE",
            "__ZN4absl12lts_2022062314ParseCivilTimeENS0_11string_viewEPNS0_13time_internal4cctz6detail10civil_timeINS2_8hour_tagEEE",
            "__ZN4absl12lts_2022062313StrReplaceAllESt16initializer_listINSt3__14pairINS0_11string_viewES4_EEEPNS2_12basic_stringIcNS2_11char_traitsIcEENS2_9allocatorIcEEEE",
            "__ZN4absl12lts_2022062318StatusCodeToStringENS0_10StatusCodeE",
            "__ZN4absl12lts_2022062313cord_internal9CordzInfoD2Ev",
            "__ZN4absl12lts_2022062319str_format_internal17FormatConvertImplEeNS1_24FormatConversionSpecImplEPNS1_14FormatSinkImplE",
            "__ZN4absl12lts_2022062316numbers_internal18safe_strtou64_baseENS0_11string_viewEPyi",
            "__ZN4absl12lts_2022062311UnparseFlagENS0_8DurationE",
            "__ZN4absl12lts_2022062312ToChronoTimeENS0_4TimeE",
            "__ZN4absl12lts_2022062318container_internal14HashtablezInfoD2Ev",
            "__ZN4absl12lts_2022062315random_internal10RandenSlow6AbsorbEPKvPv",
            "__ZNK4absl12lts_202206239Condition4EvalEv",
            "__ZN4absl12lts_2022062316strings_internal13OStringStream8overflowEi",
            "__ZN4absl12lts_2022062313time_internal4cctz15fixed_time_zoneERKNSt3__16chrono8durationIxNS3_5ratioILl1ELl1EEEEE",
            "__ZN4absl12lts_2022062320raw_logging_internal27RegisterInternalLogFunctionEPFvNS0_11LogSeverityEPKciRKNSt3__112basic_stringIcNS5_11char_traitsIcEENS5_9allocatorIcEEEEE",
            "__ZN4absl12lts_2022062316variant_internal7RethrowEv",
            "__ZN4absl12lts_2022062315random_internal29ReadSeedMaterialFromOSEntropyENS0_4SpanIjEE",
            "__ZN4absl12lts_2022062313cord_internal11CordRepRing12RemovePrefixEPS2_mm",
            "__ZN4absl12lts_2022062319bad_optional_accessD0Ev",
            "__ZN4absl12lts_2022062313cord_internal25InitializeCordRepExternalENS0_11string_viewEPNS1_15CordRepExternalE",
            "__ZN4absl12lts_2022062319str_format_internal13BufferRawSink5WriteENS0_11string_viewE",
            "__ZN4absl12lts_2022062317BadStatusOrAccessaSEOS1_",
            "__ZNK4absl12lts_2022062319str_format_internal16ParsedFormatBase18MatchesConversionsEbSt16initializer_listINS0_23FormatConversionCharSetEE",
            "__ZN4absl12lts_2022062319str_format_internal24ConsumeUnboundConversionEPKcS3_PNS1_17UnboundConversionEPi",
            "__ZN4absl12lts_202206234Cord6AppendEOS1_",
            "__ZN4absl12lts_202206239ByAnyCharC2ENS0_11string_viewE",
            "__ZN4absl12lts_2022062313cord_internal11CordzHandleC2Eb",
            "__ZN4absl12lts_202206236StrCatERKNS0_8AlphaNumES3_",
            "__ZNK4absl12lts_202206234Cord16ExpectedChecksumEv",
            "__ZN4absl12lts_2022062313cord_internal9CordzInfoC1EPNS1_7CordRepEPKS2_NS1_18CordzUpdateTracker16MethodIdentifierE",
            "__ZN4absl12lts_202206238DurationmLEx",
            "__ZN4absl12lts_2022062315BlockingCounterC1Ei",
            "__ZN4absl12lts_202206235MutexD2Ev",
            "__ZN4absl12lts_2022062316strings_internal13OStringStream6xsputnEPKcl",
            "__ZNK4absl12lts_2022062313cord_internal11CordRepRing8FindSlowEjm",
            "__ZN4absl12lts_2022062315random_internal6RandenC1Ev",
            "__ZN4absl12lts_2022062316strings_internal8memmatchEPKcmS3_m",
            "__ZN4absl12lts_2022062315ToDoubleSecondsENS0_8DurationE",
            "__ZN4absl12lts_2022062324synchronization_internal11GraphCyclesC1Ev",
            "__ZN4absl12lts_2022062313cord_internal9CordzInfoC2EPNS1_7CordRepEPKS2_NS1_18CordzUpdateTracker16MethodIdentifierE",
            "__ZNK4absl12lts_2022062324synchronization_internal11GraphCycles15CheckInvariantsEv",
            "__ZN4absl12lts_2022062319bad_optional_accessD2Ev",
            "__ZN4absl12lts_2022062319ReleasableMutexLock7ReleaseEv",
            "__ZN4absl12lts_2022062319str_format_internal10FormatPackENS1_21UntypedFormatSpecImplENS0_4SpanIKNS1_13FormatArgImplEEE",
            "__ZN4absl12lts_2022062314ParseCivilTimeENS0_11string_viewEPNS0_13time_internal4cctz6detail10civil_timeINS2_10minute_tagEEE",
            "__ZN4absl12lts_2022062324synchronization_internal11GraphCyclesD1Ev",
            "__ZN4absl12lts_2022062313FromUniversalEx",
            "__ZN4absl12lts_2022062316numbers_internal15FastIntToBufferEjPc",
            "__ZN4absl12lts_2022062319str_format_internal17FormatConvertImplEhNS1_24FormatConversionSpecImplEPNS1_14FormatSinkImplE",
            "__ZN4absl12lts_2022062318container_internal10SampleSlowERNS1_13SamplingStateEm",
            "__ZN4absl12lts_2022062313base_internal21ThrowStdOverflowErrorEPKc",
            "__ZN4absl12lts_2022062313cord_internal11CordRepRing11PrependSlowEPS2_PNS1_7CordRepE",
            "__ZN4absl12lts_2022062314GetStackFramesEPPvPiii",
            "__ZN4absl12lts_2022062315status_internal14MapToLocalCodeEi",
            "__ZN4absl12lts_2022062319ToDoubleNanosecondsENS0_8DurationE",
            "__ZN4absl12lts_2022062313hash_internal19CityHash64WithSeedsEPKcmyy",
            "__ZN4absl12lts_2022062310IsDataLossERKNS0_6StatusE",
            "__ZN4absl12lts_2022062319str_format_internal16ConvertFloatImplEeRKNS1_24FormatConversionSpecImplEPNS1_14FormatSinkImplE",
            "__ZN4absl12lts_2022062315ToChronoMinutesENS0_8DurationE",
            "__ZN4absl12lts_2022062320ToDoubleMillisecondsENS0_8DurationE",
            "__ZN4absl12lts_202206239IsUnknownERKNS0_6StatusE",
            "__ZNK4absl12lts_2022062313cord_internal11CordRepRing7IsValidERNSt3__113basic_ostreamIcNS3_11char_traitsIcEEEE",
            "__ZN4absl12lts_2022062320raw_logging_internal28AsyncSignalSafeWriteToStderrEPKcm",
            "__ZN4absl12lts_2022062312Base64EscapeENS0_11string_viewE",
            "__ZN4absl12lts_202206234ToTMENS0_4TimeENS0_8TimeZoneE",
            "__ZN4absl12lts_2022062313cord_internal11CordRepRing3NewEmm",
            "__ZN4absl12lts_2022062313cord_internal12CordRepBtree7NewLeafILNS2_8EdgeTypeE0EEEPS2_NS0_11string_viewEm",
            "__ZN4absl12lts_2022062315status_internal19MakeCheckFailStringEPKNS0_6StatusEPKc",
            "__ZN4absl12lts_2022062318EndsWithIgnoreCaseENS0_11string_viewES1_",
            "__ZN4absl12lts_2022062313cord_internal12CordRepBtree7RebuildEPS2_",
            "__ZN4absl12lts_2022062317BadStatusOrAccessC2ENS0_6StatusE",
            "__ZN4absl12lts_2022062316strings_internal14CordTestAccess13MaxFlatLengthEv",
            "__ZN4absl12lts_2022062319str_format_internal10AppendPackEPNSt3__112basic_stringIcNS2_11char_traitsIcEENS2_9allocatorIcEEEENS1_21UntypedFormatSpecImplENS0_4SpanIKNS1_13FormatArgImplEEE",
            "__ZNK4absl12lts_202206235Mutex16AssertReaderHeldEv",
            "__ZN4absl12lts_202206235Mutex10ReaderLockEv",
            "__ZN4absl12lts_2022062311ToUnixNanosENS0_4TimeE",
            "__ZN4absl12lts_2022062313cord_internal23get_cordz_mean_intervalEv",
            "__ZNK4absl12lts_2022062311string_view17find_first_not_ofEcm",
            "__ZN4absl12lts_202206238AlphaNumC2ENS0_3HexE",
            "__ZN4absl12lts_202206235Mutex9TryRemoveEPNS0_13base_internal14PerThreadSynchE",
            "__ZN4absl12lts_202206239ByAnyCharC1ENS0_11string_viewE",
            "__ZN4absl12lts_202206235Mutex5BlockEPNS0_13base_internal14PerThreadSynchE",
            "__ZN4absl12lts_202206235Mutex11AwaitCommonERKNS0_9ConditionENS0_24synchronization_internal13KernelTimeoutE",
            "__ZN4absl12lts_2022062313base_internal24RegisterSpinLockProfilerEPFvPKvxE",
            "__ZN4absl12lts_2022062313cord_internal11CordRepRing7MutableEPS2_m",
            "__ZN4absl12lts_2022062313cord_internal11CordzHandleC1Eb",
            "__ZN4absl12lts_202206235TruncENS0_8DurationES1_",
            "__ZN4absl12lts_2022062313time_internal4cctz9time_zone4Impl12LoadTimeZoneERKNSt3__112basic_stringIcNS5_11char_traitsIcEENS5_9allocatorIcEEEEPS3_",
            "__ZN4absl12lts_2022062313time_internal4cctz10TimeZoneIfD2Ev",
            "__ZN4absl12lts_2022062313cord_internal11CordzHandleD2Ev",
            "__ZN4absl12lts_2022062318bad_variant_accessD2Ev",
            "__ZN4absl12lts_2022062320raw_logging_internal24RawLoggingFullySupportedEv",
            "__ZN4absl12lts_2022062324synchronization_internal10MutexDelayEii",
            "__ZN4absl12lts_2022062313cord_internal7ConsumeEPNS1_7CordRepENS0_11FunctionRefIFvS3_mmEEE",
            "__ZN4absl12lts_2022062319str_format_internal16ConvertFloatImplEfRKNS1_24FormatConversionSpecImplEPNS1_14FormatSinkImplE",
            "__ZNK4absl12lts_2022062313time_internal4cctz12TimeZoneInfo9LocalTimeExRKNS2_10TransitionE",
            "__ZN4absl12lts_2022062313base_internal20ThrowStdRuntimeErrorEPKc",
            "__ZN4absl12lts_2022062313time_internallsERNSt3__113basic_ostreamIcNS2_11char_traitsIcEEEENS1_4cctz6detail10civil_timeINS1_8year_tagEEE",
            "__ZN4absl12lts_2022062313cord_internal11CordRepRing15GetAppendBufferEm",
            "__ZN4absl12lts_2022062316EqualsIgnoreCaseENS0_11string_viewES1_",
            "__ZN4absl12lts_202206239ParseFlagERKNSt3__112basic_stringIcNS1_11char_traitsIcEENS1_9allocatorIcEEEEPNS0_8DurationEPS7_",
            "__ZN4absl12lts_2022062313hash_internal15MixingHashState28CombineLargeContiguousImpl64EyPKhm",
            "__ZN4absl12lts_2022062324synchronization_internal25OneTimeInitThreadIdentityEPNS0_13base_internal14ThreadIdentityE",
            "__ZN4absl12lts_202206238ByLengthC2El",
            "__ZN4absl12lts_2022062313base_internal6GetTIDEv",
            "__ZN4absl12lts_2022062324GetStackTraceWithContextEPPviiPKvPi",
            "__ZNK4absl12lts_202206239ByAnyChar4FindENS0_11string_viewEm",
            "__ZN4absl12lts_2022062312NotificationD1Ev",
            "__ZN4absl12lts_2022062313cord_internal12CordRepBtree4DumpEPKNS1_7CordRepERNSt3__113basic_ostreamIcNS6_11char_traitsIcEEEE",
            "__ZN4absl12lts_2022062319str_format_internal16ParsedFormatBaseC2ENS0_11string_viewEbSt16initializer_listINS0_23FormatConversionCharSetEE",
            "__ZN4absl12lts_202206234Cord14PrependPreciseENS0_11string_viewENS0_13cord_internal18CordzUpdateTracker16MethodIdentifierE",
            "__ZNK4absl12lts_202206234Cord10EqualsImplERKS1_m",
            "__ZN4absl12lts_2022062313InternalErrorENS0_11string_viewE",
            "__ZN4absl12lts_2022062313cord_internal12CordRepBtree10CreateSlowEPNS1_7CordRepE",
            "__ZN4absl12lts_2022062316numbers_internal17safe_strto64_baseENS0_11string_viewEPxi",
            "__ZN4absl12lts_202206234Cord13AppendPreciseENS0_11string_viewENS0_13cord_internal18CordzUpdateTracker16MethodIdentifierE",
            "__ZN4absl12lts_2022062313time_internal4cctz14ZoneInfoSourceD1Ev",
            "__ZN4absl12lts_2022062313base_internal13LowLevelAlloc5AllocEm",
            "__ZN4absl12lts_2022062319substitute_internal3ArgC1ENS0_3HexE",
            "__ZN4absl12lts_202206235Mutex8LockWhenERKNS0_9ConditionE",
            "__ZN4absl12lts_2022062315random_internal21ThrowSeedGenExceptionEv",
            "__ZNK4absl12lts_202206234CordixEm",
            "__ZN4absl12lts_2022062329EnableMutexInvariantDebuggingEb",
            "__ZN4absl12lts_2022062313time_internal4cctz14ParsePosixSpecERKNSt3__112basic_stringIcNS3_11char_traitsIcEENS3_9allocatorIcEEEEPNS2_13PosixTimeZoneE",
            "__ZN4absl12lts_2022062313base_internal22ThrowStdUnderflowErrorEPKc",
            "__ZN4absl12lts_2022062312ToUnixMillisENS0_4TimeE",
            "__ZN4absl12lts_2022062313cord_internal32GetEstimatedFairShareMemoryUsageEPKNS1_7CordRepE",
            "__ZN4absl12lts_202206239ConditionC1Ev",
            "__ZNK4absl12lts_2022062312Notification31WaitForNotificationWithDeadlineENS0_4TimeE",
            "__ZN4absl12lts_2022062310from_charsEPKcS2_RdNS0_12chars_formatE",
            "__ZN4absl12lts_2022062313base_internal23ThrowStdBadFunctionCallEv",
            "__ZN4absl12lts_2022062319str_format_internal17FormatConvertImplEdNS1_24FormatConversionSpecImplEPNS1_14FormatSinkImplE",
            "__ZN4absl12lts_2022062313cord_internal11CordRepRing6CreateEPNS1_7CordRepEm",
            "__ZN4absl12lts_2022062313base_internal13LowLevelAlloc14AllocWithArenaEmPNS2_5ArenaE",
            "__ZN4absl12lts_2022062313cord_internal23set_cordz_mean_intervalEi",
            "__ZN4absl12lts_2022062316strings_internal10memcasecmpEPKcS3_m",
            "__ZN4absl12lts_2022062313time_internal4cctz14load_time_zoneERKNSt3__112basic_stringIcNS3_11char_traitsIcEENS3_9allocatorIcEEEEPNS2_9time_zoneE",
            "__ZN4absl12lts_2022062318container_internal20SetHashtablezEnabledEb",
            "__ZN4absl12lts_2022062319str_format_internal17FormatConvertImplEmNS1_24FormatConversionSpecImplEPNS1_14FormatSinkImplE",
            "__ZN4absl12lts_202206236StatusC1ENS0_10StatusCodeENS0_11string_viewE",
            "__ZN4absl12lts_2022062324synchronization_internal11GraphCycles16UpdateStackTraceENS1_7GraphIdEiPFiPPviE",
            "__ZN4absl12lts_2022062319RegisterMutexTracerEPFvPKcPKvxE",
            "__ZTWN4absl12lts_2022062313base_internal19thread_identity_ptrE",
            "__ZNK4absl12lts_2022062319str_format_internal10Streamable5PrintERNSt3__113basic_ostreamIcNS3_11char_traitsIcEEEE",
            "__ZN4absl12lts_2022062316numbers_internal18safe_strto128_baseENS0_11string_viewEPNS0_6int128Ei",
            "__ZN4absl12lts_2022062313time_internal4cctz14ZoneInfoSourceD2Ev",
            "__ZN4absl12lts_2022062313time_internal4cctz17FixedOffsetToNameERKNSt3__16chrono8durationIxNS3_5ratioILl1ELl1EEEEE",
            "__ZN4absl12lts_2022062313cord_internal12CordRepBtree4DumpEPKNS1_7CordRepENS0_11string_viewERNSt3__113basic_ostreamIcNS7_11char_traitsIcEEEE",
            "__ZN4absl12lts_2022062313time_internal4cctz6detaillsERNSt3__113basic_ostreamIcNS4_11char_traitsIcEEEERKNS3_10civil_timeINS3_9month_tagEEE",
            "__ZN4absl12lts_2022062324synchronization_internal11GraphCycles3PtrENS1_7GraphIdE",
            "__ZN4absl12lts_2022062313base_internal24SetCurrentThreadIdentityEPNS1_14ThreadIdentityEPFvPvE",
            "__ZNK4absl12lts_2022062312Notification19WaitForNotificationEv",
            "__ZN4absl12lts_2022062313AbslParseFlagENS0_11string_viewEPNS0_4TimeEPNSt3__112basic_stringIcNS4_11char_traitsIcEENS4_9allocatorIcEEEE",
            "__ZN4absl12lts_202206239ParseFlagERKNSt3__112basic_stringIcNS1_11char_traitsIcEENS1_9allocatorIcEEEEPNS0_4TimeEPS7_",
            "__ZN4absl12lts_202206236FromTMERK2tmNS0_8TimeZoneE",
            "__ZN4absl12lts_2022062313cord_internal12CordRepBtree7NewLeafILNS2_8EdgeTypeE1EEEPS2_NS0_11string_viewEm",
            "__ZN4absl12lts_2022062312any_internal15ThrowBadAnyCastEv",
            "__ZN4absl12lts_2022062315Utf8SafeCEscapeENS0_11string_viewE",
            "__ZN4absl12lts_2022062317BadStatusOrAccessC2EOS1_",
            "__ZN4absl12lts_2022062316CopyCordToStringERKNS0_4CordEPNSt3__112basic_stringIcNS4_11char_traitsIcEENS4_9allocatorIcEEEE",
            "__ZN4absl12lts_2022062311MakeSeedSeqEv",
            "__ZN4absl12lts_2022062316strings_internal14CordTestAccess12FlatOverheadEv",
            "__ZN4absl12lts_2022062316numbers_internal15FastIntToBufferEiPc",
            "__ZNK4absl12lts_2022062313time_internal4cctz9time_zone7versionEv",
            "__ZNK4absl12lts_2022062311string_view13find_first_ofES1_m",
            "__ZN4absl12lts_2022062316strings_internal7memrchrEPKcim",
            "__ZN4absl12lts_2022062313cord_internal9CordzInfo7UntrackEv",
            "__ZN4absl12lts_2022062313time_internal4cctz19FixedOffsetFromNameERKNSt3__112basic_stringIcNS3_11char_traitsIcEENS3_9allocatorIcEEEEPNS3_6chrono8durationIxNS3_5ratioILl1ELl1EEEEE",
            "__ZN4absl12lts_2022062318container_internal28GetHashtablezSampleParameterEv",
            "__ZN4absl12lts_2022062319GetCurrentTimeNanosEv",
            "__ZNK4absl12lts_202206236Status4codeEv",
            "__ZN4absl12lts_2022062317internal_statusor22ThrowBadStatusOrAccessENS0_6StatusE",
            "__ZN4absl12lts_2022062318container_internal23SetHashtablezMaxSamplesEi",
            "__ZN4absl12lts_2022062319substitute_internal3ArgC2EPKv",
            "__ZN4absl12lts_202206235FloorENS0_8DurationES1_"
          ],
          "weak": [
            "__ZNK4absl12lts_2022062316strings_internal11BigUnsignedILi4EE8ToStringEv",
            "__ZNSt3__113basic_filebufIcNS_11char_traitsIcEEE12__write_modeEv",
            "__ZN4absl12lts_2022062319str_format_internal17ParseFormatStringINS1_16ParsedFormatBase20ParsedFormatConsumerEEEbNS0_11string_viewET_",
            "__ZN4absl12lts_2022062316strings_internal11BigUnsignedILi84EE10MultiplyByEj",
            "__ZN4absl12lts_2022062315random_internal10RandenPoolIjEC1Ev",
            "__ZN4absl12lts_2022062312MillisecondsIdLi0EEENS0_8DurationET_",
            "__ZN4absl12lts_2022062313StrReplaceAllISt16initializer_listINSt3__14pairINS0_11string_viewES5_EEEEENS3_12basic_stringIcNS3_11char_traitsIcEENS3_9allocatorIcEEEES5_RKT_",
            "__ZN4absl12lts_2022062313StrReplaceAllISt16initializer_listINSt3__14pairINS0_11string_viewES5_EEEEEiRKT_PNS3_12basic_stringIcNS3_11char_traitsIcEENS3_9allocatorIcEEEE",
            "__ZNK4absl12lts_2022062316strings_internal11BigUnsignedILi84EE4sizeEv",
            "__ZN4absl12lts_2022062316strings_internal10ParseFloatILi16EEENS1_11ParsedFloatEPKcS5_NS0_12chars_formatE",
            "__ZN4absl12lts_2022062316strings_internal11BigUnsignedILi4EE21MultiplyByTenToTheNthEi",
            "__ZN4absl12lts_2022062315random_internal10RandenPoolIyEC1Ev",
            "__ZN4absl12lts_2022062316strings_internal11BigUnsignedILi84EE10MultiplyByEy",
            "__ZN4absl12lts_2022062315random_internal10RandenPoolItE3minEv",
            "__ZN4absl12lts_2022062316strings_internal11BigUnsignedILi84EEC1ENS0_11string_viewE",
            "__ZN4absl12lts_2022062316strings_internal11BigUnsignedILi4EE17ReadFloatMantissaERKNS1_11ParsedFloatEi",
            "__ZNK4absl12lts_2022062316strings_internal11BigUnsignedILi4EE4sizeEv",
            "__ZN4absl12lts_2022062316strings_internal11BigUnsignedILi84EEC2Ev",
            "__ZN4absl12lts_2022062315random_internal10RandenPoolIjE8GenerateEv",
            "__ZN4absl12lts_2022062319str_format_internal13FormatArgImpl8DispatchIyEEbNS2_4DataENS1_24FormatConversionSpecImplEPv",
            "__ZN4absl12lts_202206238exchangeIxiEET_RS2_OT0_",
            "__ZN4absl12lts_202206239Condition19CastAndCallFunctionINS0_10SynchEventEEEbPKS1_",
            "__ZNK4absl12lts_2022062313cord_internal11CordRepRing10FindBinaryILb0EEEjjjm",
            "__ZN4absl12lts_2022062316strings_internal11BigUnsignedILi4EE10ReadDigitsEPKcS5_i",
            "__ZNSt3__16vectorIN4absl12lts_2022062319str_format_internal13FormatArgImplENS_9allocatorIS4_EEE6assignIPKS4_Li0EEEvT_SB_",
            "__ZNK4absl12lts_2022062318profiling_internal14SampleRecorderINS0_18container_internal14HashtablezInfoEE13GetMaxSamplesEv",
            "__ZN4absl12lts_2022062316strings_internal11BigUnsignedILi84EE12MultiplyStepEiPKjii",
            "__ZN4absl12lts_2022062316strings_internal11BigUnsignedILi84EEC1Ey",
            "__ZNSt3__113basic_filebufIcNS_11char_traitsIcEEE4openEPKcj",
            "__ZN4absl12lts_2022062319str_format_internal13FormatArgImpl8DispatchIdEEbNS2_4DataENS1_24FormatConversionSpecImplEPv",
            "__ZN4absl12lts_2022062316strings_internal11BigUnsignedILi84EEC1Ev",
            "__ZN4absl12lts_20220623mlIxEENS0_8DurationET_S2_",
            "__ZN4absl12lts_2022062315random_internal10RandenPoolItEC2Ev",
            "__ZN4absl12lts_2022062316strings_internal11BigUnsignedILi84EE12AddWithCarryEij",
            "__ZN4absl12lts_2022062319str_format_internal13FormatArgImpl8DispatchINS0_7uint128EEEbNS2_4DataENS1_24FormatConversionSpecImplEPv",
            "__ZN4absl12lts_2022062316numbers_internal15FastIntToBufferIhEEPcT_S3_",
            "__ZN4absl12lts_2022062315random_internal10RandenPoolIjEC2Ev",
            "__ZNSt3__114__split_bufferIPPKN4absl12lts_2022062313time_internal4cctz9time_zone4ImplERNS_9allocatorIS9_EEE28__construct_at_end_with_sizeINS_13move_iteratorIPS9_EEEEvT_m",
            "__ZN4absl12lts_2022062319str_format_internal13FormatArgImpl8DispatchIxEEbNS2_4DataENS1_24FormatConversionSpecImplEPv",
            "__ZN4absl12lts_2022062316strings_internal11BigUnsignedILi84EE10MultiplyByEiPKj",
            "__ZN4absl12lts_20220623dvIxEENS0_8DurationES2_T_",
            "__ZN4absl12lts_2022062315random_internal10RandenPoolIhEclEv",
            "__ZN4absl12lts_2022062316strings_internal11BigUnsignedILi4EE12AddWithCarryEiy",
            "__ZN4absl12lts_2022062315random_internal10RandenPoolIyE3maxEv",
            "__ZN4absl12lts_2022062316strings_internal11BigUnsignedILi4EEC2Ev",
            "__ZNK4absl12lts_2022062316strings_internal11BigUnsignedILi84EE8ToStringEv",
            "__ZN4absl12lts_2022062313cord_internal12CordRepBtree10AddCordRepILNS2_8EdgeTypeE1EEEPS2_S5_PNS1_7CordRepE",
            "__ZN4absl12lts_2022062319str_format_internal11InvokeFlushINSt3__113basic_ostreamIcNS3_11char_traitsIcEEEEEEDTcl15AbslFormatFlushfp_fp0_EEPT_NS0_11string_viewE",
            "__ZN4absl12lts_2022062323inlined_vector_internal7StorageINS0_15status_internal7PayloadELm1ENSt3__19allocatorIS4_EEE15EmplaceBackSlowIJS4_EEERS4_DpOT_",
            "__ZN4absl12lts_2022062315random_internal10RandenPoolItEC1Ev",
            "_AbslInternalMutexYield_lts_20220623",
            "__ZNSt3__16vectorIN4absl12lts_2022062313time_internal4cctz14TransitionTypeENS_9allocatorIS5_EEE7emplaceIJEEENS_11__wrap_iterIPS5_EENSA_IPKS5_EEDpOT_",
            "__ZN4absl12lts_2022062323inlined_vector_internal7StorageINS0_15status_internal7PayloadELm1ENSt3__19allocatorIS4_EEE11EmplaceBackIJS4_EEERS4_DpOT_",
            "__ZN4absl12lts_2022062319str_format_internal13FormatArgImpl8DispatchItEEbNS2_4DataENS1_24FormatConversionSpecImplEPv",
            "__ZNSt3__114__split_bufferIN4absl12lts_2022062313time_internal4cctz10TransitionERNS_9allocatorIS5_EEE18__construct_at_endINS_13move_iteratorIPS5_EEEENS_9enable_ifIXsr31__has_forward_iterator_categoryIT_EE5valueEvE4typeESF_SF_",
            "__ZN4absl12lts_2022062313cord_internal12CordRepBtree7AddDataILNS2_8EdgeTypeE1EEEPS2_S5_NS0_11string_viewEm",
            "__ZN4absl12lts_2022062313cord_internal12CordRepBtree7SetEdgeILNS2_8EdgeTypeE0EEENS2_8OpResultEbPNS1_7CordRepEm",
            "__ZN4absl12lts_2022062319str_format_internal13FormatArgImpl8DispatchIfEEbNS2_4DataENS1_24FormatConversionSpecImplEPv",
            "__ZNSt3__16vectorIN4absl12lts_2022062313time_internal4cctz10TransitionENS_9allocatorIS5_EEE7emplaceIJEEENS_11__wrap_iterIPS5_EENSA_IPKS5_EEDpOT_",
            "__ZN4absl12lts_2022062314GenericCompareIiNS0_4CordEEET_RKS2_RKT0_m",
            "__ZN4absl12lts_2022062314GenericCompareIiNS0_11string_viewEEET_RKNS0_4CordERKT0_m",
            "__ZN4absl12lts_2022062316strings_internal11BigUnsignedILi4EE10MultiplyByEj",
            "__ZN4absl12lts_2022062319str_format_internal13FormatArgImpl8DispatchINS0_6int128EEEbNS2_4DataENS1_24FormatConversionSpecImplEPv",
            "__ZN4absl12lts_2022062316strings_internal11BigUnsignedILi4EE8Digits10Ev",
            "__ZN4absl12lts_2022062313time_internal16ToChronoDurationINSt3__16chrono8durationIlNS3_5ratioILl3600ELl1EEEEEEET_NS0_8DurationE",
            "__ZNSt3__16vectorIN4absl12lts_2022062319str_format_internal13FormatArgImplENS_9allocatorIS4_EEE18__assign_with_sizeB8ue170006IPKS4_SA_EEvT_T0_l",
            "__ZN4absl12lts_2022062319str_format_internal13FormatArgImpl8DispatchIsEEbNS2_4DataENS1_24FormatConversionSpecImplEPv",
            "__ZN4absl12lts_2022062319str_format_internal13FormatArgImpl8DispatchIlEEbNS2_4DataENS1_24FormatConversionSpecImplEPv",
            "__ZN4absl12lts_2022062319str_format_internal13FormatArgImpl8DispatchINSt3__112basic_stringIcNS4_11char_traitsIcEENS4_9allocatorIcEEEEEEbNS2_4DataENS1_24FormatConversionSpecImplEPv",
            "__ZNSt3__112__hash_tableINS_17__hash_value_typeINS_12basic_stringIcNS_11char_traitsIcEENS_9allocatorIcEEEEPKN4absl12lts_2022062313time_internal4cctz9time_zone4ImplEEENS_22__unordered_map_hasherIS7_SG_NS_4hashIS7_EENS_8equal_toIS7_EELb1EEENS_21__unordered_map_equalIS7_SG_SL_SJ_Lb1EEENS5_ISG_EEE25__emplace_unique_key_argsIS7_JRKNS_21piecewise_construct_tENS_5tupleIJRKS7_EEENSV_IJEEEEEENS_4pairINS_15__hash_iteratorIPNS_11__hash_nodeISG_PvEEEEbEERKT_DpOT0_",
            "__ZN4absl12lts_2022062316strings_internal11BigUnsignedILi4EE10MultiplyByEiPKj",
            "__ZN4absl12lts_2022062318profiling_internal14SampleRecorderINS0_18container_internal14HashtablezInfoEE10UnregisterEPS4_",
            "__ZN4absl12lts_2022062313cord_internal12CordRepBtree10AddCordRepILNS2_8EdgeTypeE0EEEPS2_S5_PNS1_7CordRepE",
            "__ZN4absl12lts_2022062323inlined_vector_internal17ConstructElementsINSt3__19allocatorINS0_15status_internal7PayloadEEENS1_20IteratorValueAdapterIS7_NS3_13move_iteratorIPS6_EEEEEEvRNS1_12TypeIdentityIT_E4typeENS3_16allocator_traitsISE_E7pointerERT0_NSJ_9size_typeE",
            "__ZNK4absl12lts_2022062313cord_internal11CordRepRing10FindBinaryILb1EEEjjjm",
            "__ZN4absl12lts_2022062315random_internal10RandenPoolIhE3minEv",
            "__ZN4absl12lts_2022062315random_internal10RandenPoolIyEclEv",
            "__ZN4absl12lts_2022062323inlined_vector_internal17ConstructElementsINSt3__19allocatorIPNS0_13cord_internal7CordRepEEENS1_20IteratorValueAdapterIS8_NS3_13move_iteratorIPS7_EEEEEEvRNS1_12TypeIdentityIT_E4typeENS3_16allocator_traitsISF_E7pointerERT0_NSK_9size_typeE",
            "__ZN4absl12lts_2022062316strings_internal11BigUnsignedILi4EE12MultiplyStepEiPKjii",
            "__ZN4absl12lts_2022062316strings_internal11BigUnsignedILi4EE12AddWithCarryEij",
            "__ZN4absl12lts_202206234Cord6AppendINSt3__112basic_stringIcNS3_11char_traitsIcEENS3_9allocatorIcEEEELi0EEEvOT_",
            "__ZN4absl12lts_2022062318profiling_internal14SampleRecorderINS0_18container_internal14HashtablezInfoEE7PopDeadIJxmEEEPS4_DpT_",
            "__ZN4absl12lts_2022062313cord_internal12CordRepBtree5MergeILNS2_8EdgeTypeE0EEEPS2_S5_S5_",
            "__ZN4absl12lts_2022062316strings_internal11BigUnsignedILi4EE10MultiplyByEy",
            "__ZN4absl12lts_2022062313cord_internal11CordRepRing7AddRingILNS2_7AddModeE1EEEPS2_S5_S5_mm",
            "__ZN4absl12lts_2022062316strings_internal11BigUnsignedILi4EE9SetToZeroEv",
            "__ZN4absl12lts_2022062314GenericCompareIbNS0_4CordEEET_RKS2_RKT0_m",
            "__ZN4absl12lts_2022062315random_internal10RandenPoolIhEC1Ev",
            "__ZN4absl12lts_2022062319str_format_internal13FormatArgImpl8DispatchImEEbNS2_4DataENS1_24FormatConversionSpecImplEPv",
            "__ZN4absl12lts_2022062323inlined_vector_internal7StorageIPNS0_13cord_internal7CordRepELm2ENSt3__19allocatorIS5_EEE11EmplaceBackIJRKS5_EEERS5_DpOT_",
            "__ZN4absl12lts_2022062316numbers_internal15FastIntToBufferIlEEPcT_S3_",
            "__ZN4absl12lts_2022062316strings_internal17FindSubstitutionsISt16initializer_listINSt3__14pairINS0_11string_viewES6_EEEEENS4_6vectorINS1_18ViableSubstitutionENS4_9allocatorISA_EEEES6_RKT_",
            "__ZN4absl12lts_20220623mlIdEENS0_8DurationET_S2_",
            "__ZN4absl12lts_2022062323inlined_vector_internal7StorageINS0_15status_internal7PayloadELm1ENSt3__19allocatorIS4_EEE15DestroyContentsEv",
            "__ZN4absl12lts_2022062313time_internal16ToChronoDurationINSt3__16chrono8durationIxNS3_5ratioILl1ELl1EEEEEEET_NS0_8DurationE",
            "__ZN4absl12lts_2022062316strings_internal11BigUnsignedILi4EEC1Ev",
            "__ZNSt3__112__hash_tableIiNS_4hashIiEENS_8equal_toIiEENS_9allocatorIiEEE11__do_rehashILb1EEEvm",
            "__ZN4absl12lts_2022062313cord_internal11CordRepRing4FillILb1EEEvPKS2_jj",
            "__ZN4absl12lts_2022062315random_internal10RandenPoolIhE4FillENS0_4SpanIhEE",
            "__ZNKSt3__115basic_stringbufIcNS_11char_traitsIcEENS_9allocatorIcEEE3strEv",
            "__ZN4absl12lts_2022062315random_internal10RandenPoolIjE3minEv",
            "__ZN4absl12lts_2022062319str_format_internal17FormatConvertImplIbLi0EEENS1_16ArgConvertResultILNS0_23FormatConversionCharSetE131067EEET_NS1_24FormatConversionSpecImplEPNS1_14FormatSinkImplE",
            "__ZN4absl12lts_202206234CordC2INSt3__112basic_stringIcNS3_11char_traitsIcEENS3_9allocatorIcEEEELi0EEEOT_",
            "__ZN4absl12lts_2022062323inlined_vector_internal7StorageINS0_15status_internal7PayloadELm1ENSt3__19allocatorIS4_EEE8InitFromERKS8_",
            "__ZN4absl12lts_2022062316numbers_internal15FastIntToBufferImEEPcT_S3_",
            "__ZN4absl12lts_2022062313cord_internal12CordRepBtree7SetEdgeILNS2_8EdgeTypeE1EEENS2_8OpResultEbPNS1_7CordRepEm",
            "__ZNSt3__112basic_stringIcNS_11char_traitsIcEENS_9allocatorIcEEE16__init_with_sizeB8ue170006IPcS7_EEvT_T0_m",
            "__ZN4absl12lts_2022062319str_format_internal13FormatArgImpl8DispatchIbEEbNS2_4DataENS1_24FormatConversionSpecImplEPv",
            "__ZN4absl12lts_2022062316strings_internal11BigUnsignedILi4EE12FiveToTheNthEi",
            "__ZN4absl12lts_2022062316strings_internal11BigUnsignedILi4EEC1Ey",
            "__ZN4absl12lts_202206234Cord7PrependINSt3__112basic_stringIcNS3_11char_traitsIcEENS3_9allocatorIcEEEELi0EEEvOT_",
            "__ZN4absl12lts_2022062319str_format_internal13FormatArgImpl8DispatchIjEEbNS2_4DataENS1_24FormatConversionSpecImplEPv",
            "__ZN4absl12lts_2022062313time_internal16ToChronoDurationINSt3__16chrono8durationIlNS3_5ratioILl60ELl1EEEEEEET_NS0_8DurationE",
            "__ZN4absl12lts_2022062313time_internal16ToChronoDurationINSt3__16chrono8durationIxNS3_5ratioILl1ELl1000EEEEEEET_NS0_8DurationE",
            "__ZN4absl12lts_2022062313time_internal16ToChronoDurationINSt3__16chrono8durationIxNS3_5ratioILl1ELl1000000000EEEEEEET_NS0_8DurationE",
            "__ZN4absl12lts_2022062316numbers_internal15FastIntToBufferIaEEPcT_S3_",
            "__ZN4absl12lts_2022062313time_internal16ToChronoDurationINSt3__16chrono8durationIxNS3_5ratioILl1ELl1000000EEEEEEET_NS0_8DurationE",
            "__ZN4absl12lts_2022062323inlined_vector_internal14AssignElementsINSt3__19allocatorINS0_15status_internal7PayloadEEENS1_20IteratorValueAdapterIS7_NS3_13move_iteratorIPS6_EEEEEEvNS3_16allocator_traitsIT_E7pointerERT0_NSF_9size_typeE",
            "__ZN4absl12lts_2022062313base_internal6invokeIRFvvEJEEEDTclsr7InvokerIT_DpT0_E4typeE6Invokeclsr3stdE7declvalIS5_EEspclsr3stdE7declvalIS6_EEEEOS5_DpOS6_",
            "__ZNSt3__112basic_stringIcNS_11char_traitsIcEENS_9allocatorIcEEE16__init_with_sizeB8ue170006IPKcS8_EEvT_T0_m",
            "_AbslInternalSpinLockDelay_lts_20220623",
            "__ZNSt3__112__hash_tableINS_17__hash_value_typeINS_12basic_stringIcNS_11char_traitsIcEENS_9allocatorIcEEEEPKN4absl12lts_2022062313time_internal4cctz9time_zone4ImplEEENS_22__unordered_map_hasherIS7_SG_NS_4hashIS7_EENS_8equal_toIS7_EELb1EEENS_21__unordered_map_equalIS7_SG_SL_SJ_Lb1EEENS5_ISG_EEE4findIS7_EENS_15__hash_iteratorIPNS_11__hash_nodeISG_PvEEEERKT_",
            "_AbslInternalSleepFor_lts_20220623",
            "__ZN4absl12lts_2022062318container_internal19find_first_non_fullIvEENS1_8FindInfoEPKNS1_6ctrl_tEmm",
            "_AbslContainerInternalSampleEverything_lts_20220623",
            "__ZNSt3__114__split_bufferIN4absl12lts_2022062313time_internal4cctz10TransitionERNS_9allocatorIS5_EEE12emplace_backIJEEEvDpOT_",
            "__ZN4absl12lts_2022062318profiling_internal14SampleRecorderINS0_18container_internal14HashtablezInfoEE7PushNewEPS4_",
            "__ZN4absl12lts_2022062313cord_internal11CordRepRing7AddRingILNS2_7AddModeE0EEEPS2_S5_S5_mm",
            "__ZN4absl12lts_2022062315random_internal10RandenPoolIjE3maxEv",
            "__ZN4absl12lts_2022062319str_format_internal11InvokeFlushINSt3__112basic_stringIcNS3_11char_traitsIcEENS3_9allocatorIcEEEEEEDTcl15AbslFormatFlushfp_fp0_EEPT_NS0_11string_viewE",
            "__ZN4absl12lts_2022062315random_internal10RandenPoolIhE8GenerateEv",
            "__ZN4absl12lts_2022062319str_format_internal11InvokeFlushINS1_13BufferRawSinkEEEDTcl15AbslFormatFlushfp_fp0_EEPT_NS0_11string_viewE",
            "__ZN4absl12lts_2022062318profiling_internal14SampleRecorderINS0_18container_internal14HashtablezInfoEE13SetMaxSamplesEi",
            "__ZN4absl12lts_202206234CordC1INSt3__112basic_stringIcNS3_11char_traitsIcEENS3_9allocatorIcEEEELi0EEEOT_",
            "__ZN4absl12lts_2022062316strings_internal11BigUnsignedILi4EEC2ENS0_11string_viewE",
            "__ZN4absl12lts_2022062313base_internal12CallOnceImplIRFvvEJEEEvPNSt3__16atomicIjEENS1_14SchedulingModeEOT_DpOT0_",
            "__ZN4absl12lts_2022062316numbers_internal15FastIntToBufferIsEEPcT_S3_",
            "__ZN4absl12lts_2022062323inlined_vector_internal17ConstructElementsINSt3__19allocatorINS0_15status_internal7PayloadEEENS1_20IteratorValueAdapterIS7_PKS6_EEEEvRNS1_12TypeIdentityIT_E4typeENS3_16allocator_traitsISD_E7pointerERT0_NSI_9size_typeE",
            "__ZN4absl12lts_2022062316strings_internal11BigUnsignedILi84EEC2Ey",
            "__ZN4absl12lts_202206239Condition19CastAndCallFunctionIKNSt3__16atomicIbEEEEbPKS1_",
            "__ZN4absl12lts_2022062315random_internal10RandenPoolIyEC2Ev",
            "__ZN4absl12lts_2022062315random_internal10RandenPoolIjEclEv",
            "__ZNSt3__112__hash_tableIiNS_4hashIiEENS_8equal_toIiEENS_9allocatorIiEEE25__emplace_unique_key_argsIiJRKiEEENS_4pairINS_15__hash_iteratorIPNS_11__hash_nodeIiPvEEEEbEERKT_DpOT0_",
            "_AbslInternalSpinLockWake_lts_20220623",
            "__ZN4absl12lts_2022062316strings_internal11BigUnsignedILi84EE21MultiplyByTenToTheNthEi",
            "__ZN4absl12lts_2022062319str_format_internal13FormatArgImpl8DispatchIcEEbNS2_4DataENS1_24FormatConversionSpecImplEPv",
            "__ZN4absl12lts_2022062313base_internal16LowLevelCallOnceIRFvvEJEEEvPNS0_9once_flagEOT_DpOT0_",
            "__ZN4absl12lts_2022062316strings_internal20Base64EscapeInternalINSt3__112basic_stringIcNS3_11char_traitsIcEENS3_9allocatorIcEEEEEEvPKhmPT_bPKc",
            "__ZN4absl12lts_2022062316strings_internal11BigUnsignedILi4EE9ShiftLeftEi",
            "__ZNSt3__113basic_filebufIcNS_11char_traitsIcEEE11__read_modeEv",
            "__ZN4absl12lts_2022062318container_internal13TrailingZerosIyEEjT_",
            "__ZNSt3__114__split_bufferIN4absl12lts_2022062313time_internal4cctz10TransitionERNS_9allocatorIS5_EEE28__construct_at_end_with_sizeINS_13move_iteratorIPS5_EEEEvT_m",
            "__ZN4absl12lts_2022062318profiling_internal14SampleRecorderINS0_18container_internal14HashtablezInfoEE8RegisterIJRKxRmEEEPS4_DpOT_",
            "__ZNSt3__112__hash_tableIiNS_4hashIiEENS_8equal_toIiEENS_9allocatorIiEEE8__rehashILb1EEEvm",
            "__ZN4absl12lts_2022062315random_internal10RandenPoolItE4FillENS0_4SpanItEE",
            "__ZN4absl12lts_2022062319str_format_internal13FormatArgImpl8DispatchIaEEbNS2_4DataENS1_24FormatConversionSpecImplEPv",
            "__ZN4absl12lts_2022062315random_internal10RandenPoolIhEC2Ev",
            "__ZN4absl12lts_2022062315random_internal10RandenPoolIyE8GenerateEv",
            "__ZN4absl12lts_2022062315random_internal10RandenPoolIjE4FillENS0_4SpanIjEE",
            "__ZN4absl12lts_2022062316strings_internal11BigUnsignedILi84EE12FiveToTheNthEi",
            "__ZN4absl12lts_2022062319str_format_internal13FormatArgImpl8DispatchINS1_7VoidPtrEEEbNS2_4DataENS1_24FormatConversionSpecImplEPv",
            "__ZNK4absl12lts_2022062316strings_internal11BigUnsignedILi84EE5wordsEv",
            "_AbslInternalPerThreadSemWait_lts_20220623",
            "__ZN4absl12lts_2022062316strings_internal11BigUnsignedILi84EE12AddWithCarryEiy",
            "__ZNSt3__114__split_bufferIPPKN4absl12lts_2022062313time_internal4cctz9time_zone4ImplERNS_9allocatorIS9_EEE18__construct_at_endINS_13move_iteratorIPS9_EEEENS_9enable_ifIXsr31__has_forward_iterator_categoryIT_EE5valueEvE4typeESJ_SJ_",
            "__ZN4absl12lts_2022062319str_format_internal11InvokeFlushINS1_11FILERawSinkEEEDTcl15AbslFormatFlushfp_fp0_EEPT_NS0_11string_viewE",
            "__ZN4absl12lts_2022062318profiling_internal14SampleRecorderINS0_18container_internal14HashtablezInfoEE8PushDeadEPS4_",
            "__ZN4absl12lts_2022062315random_internal10RandenPoolIyE3minEv",
            "__ZN4absl12lts_2022062315random_internal10RandenPoolIhE3maxEv",
            "__ZNSt3__112__hash_tableIiNS_4hashIiEENS_8equal_toIiEENS_9allocatorIiEEE21__construct_node_hashIRKiJEEENS_10unique_ptrINS_11__hash_nodeIiPvEENS_22__hash_node_destructorINS5_ISE_EEEEEEmOT_DpOT0_",
            "__ZN4absl12lts_2022062315random_internal10RandenPoolItEclEv",
            "__ZN4absl12lts_2022062319str_format_internal13FormatArgImpl8DispatchIhEEbNS2_4DataENS1_24FormatConversionSpecImplEPv",
            "__ZNSt3__114__split_bufferIN4absl12lts_2022062313time_internal4cctz14TransitionTypeERNS_9allocatorIS5_EEE28__construct_at_end_with_sizeINS_13move_iteratorIPS5_EEEEvT_m",
            "__ZN4absl12lts_2022062319str_format_internal13FormatArgImpl8DispatchIiEEbNS2_4DataENS1_24FormatConversionSpecImplEPv",
            "__ZNSt3__114__split_bufferIN4absl12lts_2022062313time_internal4cctz14TransitionTypeERNS_9allocatorIS5_EEE12emplace_backIJEEEvDpOT_",
            "__ZN4absl12lts_2022062316strings_internal11BigUnsignedILi84EE22MultiplyByFiveToTheNthEi",
            "__ZN4absl12lts_2022062316numbers_internal15FastIntToBufferIcEEPcT_S3_",
            "__ZN4absl12lts_2022062315random_internal10RandenPoolItE8GenerateEv",
            "__ZN4absl12lts_2022062315random_internal10RandenPoolIyE4FillENS0_4SpanIyEE",
            "__ZN4absl12lts_2022062323inlined_vector_internal7StorageINS0_15status_internal7PayloadELm1ENSt3__19allocatorIS4_EEE5EraseEPKS4_SA_",
            "__ZN4absl12lts_2022062316strings_internal11BigUnsignedILi84EEC2ENS0_11string_viewE",
            "__ZN4absl12lts_2022062323inlined_vector_internal7StorageIPNS0_13cord_internal7CordRepELm2ENSt3__19allocatorIS5_EEE15EmplaceBackSlowIJRKS5_EEERS5_DpOT_",
            "__ZN4absl12lts_2022062319str_format_internal13FormatArgImpl8DispatchINS0_11string_viewEEEbNS2_4DataENS1_24FormatConversionSpecImplEPv",
            "__ZNSt3__112__hash_tableINS_17__hash_value_typeINS_12basic_stringIcNS_11char_traitsIcEENS_9allocatorIcEEEEPKN4absl12lts_2022062313time_internal4cctz9time_zone4ImplEEENS_22__unordered_map_hasherIS7_SG_NS_4hashIS7_EENS_8equal_toIS7_EELb1EEENS_21__unordered_map_equalIS7_SG_SL_SJ_Lb1EEENS5_ISG_EEE21__construct_node_hashIRKNS_21piecewise_construct_tEJNS_5tupleIJRKS7_EEENSV_IJEEEEEENS_10unique_ptrINS_11__hash_nodeISG_PvEENS_22__hash_node_destructorINS5_IS13_EEEEEEmOT_DpOT0_",
            "__ZNSt3__114__split_bufferIN4absl12lts_2022062313time_internal4cctz14TransitionTypeERNS_9allocatorIS5_EEE18__construct_at_endINS_13move_iteratorIPS5_EEEENS_9enable_ifIXsr31__has_forward_iterator_categoryIT_EE5valueEvE4typeESF_SF_",
            "__ZN4absl12lts_2022062319str_format_internal13FormatArgImpl8DispatchIPKcEEbNS2_4DataENS1_24FormatConversionSpecImplEPv",
            "__ZNSt3__112__hash_tableINS_17__hash_value_typeINS_12basic_stringIcNS_11char_traitsIcEENS_9allocatorIcEEEEPKN4absl12lts_2022062313time_internal4cctz9time_zone4ImplEEENS_22__unordered_map_hasherIS7_SG_NS_4hashIS7_EENS_8equal_toIS7_EELb1EEENS_21__unordered_map_equalIS7_SG_SL_SJ_Lb1EEENS5_ISG_EEE8__rehashILb1EEEvm",
            "__ZN4absl12lts_2022062316strings_internal37STLStringResizeUninitializedAmortizedINSt3__112basic_stringIcNS3_11char_traitsIcEENS3_9allocatorIcEEEEEEvPT_m",
            "__ZNK4absl12lts_2022062316strings_internal11BigUnsignedILi4EE5wordsEv",
            "__ZNSt3__113basic_filebufIcNS_11char_traitsIcEEE5closeEv",
            "__ZNSt3__112__hash_tableINS_17__hash_value_typeINS_12basic_stringIcNS_11char_traitsIcEENS_9allocatorIcEEEEPKN4absl12lts_2022062313time_internal4cctz9time_zone4ImplEEENS_22__unordered_map_hasherIS7_SG_NS_4hashIS7_EENS_8equal_toIS7_EELb1EEENS_21__unordered_map_equalIS7_SG_SL_SJ_Lb1EEENS5_ISG_EEE11__do_rehashILb1EEEvm",
            "__ZN4absl12lts_2022062316numbers_internal15FastIntToBufferItEEPcT_S3_",
            "__ZN4absl12lts_2022062316strings_internal10ParseFloatILi10EEENS1_11ParsedFloatEPKcS5_NS0_12chars_formatE",
            "__ZN4absl12lts_2022062316strings_internal11BigUnsignedILi84EE17ReadFloatMantissaERKNS1_11ParsedFloatEi",
            "__ZN4absl12lts_2022062314GenericCompareIbNS0_11string_viewEEET_RKNS0_4CordERKT0_m",
            "__ZN4absl12lts_2022062316strings_internal11BigUnsignedILi84EE10ReadDigitsEPKcS5_i",
            "__ZN4absl12lts_2022062316strings_internal11BigUnsignedILi4EEC2Ey",
            "__ZN4absl12lts_202206239call_onceIRFvvEJEEEvRNS0_9once_flagEOT_DpOT0_",
            "__ZN4absl12lts_2022062316strings_internal11BigUnsignedILi84EE9SetToZeroEv",
            "__ZNSt3__16vectorIN4absl12lts_2022062319str_format_internal13FormatArgImplENS_9allocatorIS4_EEE18__construct_at_endIPKS4_SA_EEvT_T0_m",
            "__ZNK4absl12lts_2022062316strings_internal11BigUnsignedILi84EE7GetWordEi",
            "__ZN4absl12lts_2022062316strings_internal11BigUnsignedILi4EEC1ENS0_11string_viewE",
            "__ZN4absl12lts_2022062313cord_internal12CordRepBtree5MergeILNS2_8EdgeTypeE1EEEPS2_S5_S5_",
            "__ZN4absl12lts_2022062315random_internal10RandenPoolItE3maxEv",
            "__ZN4absl12lts_2022062316strings_internal11BigUnsignedILi84EE9ShiftLeftEi",
            "__ZN4absl12lts_2022062313cord_internal11CordRepRing4FillILb0EEEvPKS2_jj",
            "__ZN4absl12lts_2022062316strings_internal11BigUnsignedILi4EE22MultiplyByFiveToTheNthEi",
            "__ZN4absl12lts_2022062316strings_internal7CompareILi84ELi84EEEiRKNS1_11BigUnsignedIXT_EEERKNS3_IXT0_EEE",
            "_AbslInternalPerThreadSemPost_lts_20220623",
            "__ZN4absl12lts_2022062316strings_internal11BigUnsignedILi84EE8Digits10Ev",
            "__ZN4absl12lts_2022062319str_format_internal13FormatArgImpl8DispatchIeEEbNS2_4DataENS1_24FormatConversionSpecImplEPv",
            "__ZN4absl12lts_2022062313cord_internal12CordRepBtree7AddDataILNS2_8EdgeTypeE0EEEPS2_S5_NS0_11string_viewEm",
            "__ZNK4absl12lts_2022062316strings_internal11BigUnsignedILi4EE7GetWordEi",
            "__ZN4absl12lts_20220623mlIiEENS0_8DurationET_S2_"
          ]
        }
      }
    ],
    "flags": [
      {
        "attributes": [
          "not_app_extension_safe"
        ]
      }
    ],
    "install_names": [
      {
        "name": "@rpath/absl.framework/Versions/A/absl"
      }
    ],
    "target_info": [
      {
        "min_deployment": "11",
        "target": "arm64-macos"
      }
    ]
  },
  "tapi_tbd_version": 5
}
